Archive member included to satisfy reference by file (symbol)

/home/j/Dokumente/GitHub/FreetimeOS/lfs/build-glibc/libc_pic.a(check_fds.os)
                              /home/j/Dokumente/GitHub/FreetimeOS/lfs/build-glibc/elf/dl-allobjs.os (__libc_check_standard_fds)
/home/j/Dokumente/GitHub/FreetimeOS/lfs/build-glibc/libc_pic.a(errno.os)
                              /home/j/Dokumente/GitHub/FreetimeOS/lfs/build-glibc/libc_pic.a(check_fds.os) (__libc_errno)
/home/j/Dokumente/GitHub/FreetimeOS/lfs/build-glibc/libc_pic.a(setjmp.os)
                              /home/j/Dokumente/GitHub/FreetimeOS/lfs/build-glibc/elf/dl-allobjs.os (__sigsetjmp)
/home/j/Dokumente/GitHub/FreetimeOS/lfs/build-glibc/libc_pic.a(__longjmp.os)
                              /home/j/Dokumente/GitHub/FreetimeOS/lfs/build-glibc/elf/dl-allobjs.os (__longjmp)
/home/j/Dokumente/GitHub/FreetimeOS/lfs/build-glibc/libc_pic.a(lowlevellock.os)
                              /home/j/Dokumente/GitHub/FreetimeOS/lfs/build-glibc/elf/dl-allobjs.os (__lll_lock_wait_private)
/home/j/Dokumente/GitHub/FreetimeOS/lfs/build-glibc/libc_pic.a(scratch_buffer_set_array_size.os)
                              /home/j/Dokumente/GitHub/FreetimeOS/lfs/build-glibc/elf/dl-allobjs.os (__libc_scratch_buffer_set_array_size)
/home/j/Dokumente/GitHub/FreetimeOS/lfs/build-glibc/libc_pic.a(memchr.os)
                              /home/j/Dokumente/GitHub/FreetimeOS/lfs/build-glibc/elf/dl-allobjs.os (memchr)
/home/j/Dokumente/GitHub/FreetimeOS/lfs/build-glibc/libc_pic.a(memcmp.os)
                              /home/j/Dokumente/GitHub/FreetimeOS/lfs/build-glibc/elf/dl-allobjs.os (memcmp)
/home/j/Dokumente/GitHub/FreetimeOS/lfs/build-glibc/libc_pic.a(memcpy.os)
                              /home/j/Dokumente/GitHub/FreetimeOS/lfs/build-glibc/libc_pic.a(check_fds.os) (__GI_memcpy)
/home/j/Dokumente/GitHub/FreetimeOS/lfs/build-glibc/libc_pic.a(memmove.os)
                              /home/j/Dokumente/GitHub/FreetimeOS/lfs/build-glibc/elf/dl-allobjs.os (memmove)
/home/j/Dokumente/GitHub/FreetimeOS/lfs/build-glibc/libc_pic.a(mempcpy.os)
                              /home/j/Dokumente/GitHub/FreetimeOS/lfs/build-glibc/elf/dl-allobjs.os (__mempcpy)
/home/j/Dokumente/GitHub/FreetimeOS/lfs/build-glibc/libc_pic.a(memset.os)
                              /home/j/Dokumente/GitHub/FreetimeOS/lfs/build-glibc/elf/dl-allobjs.os (memset)
/home/j/Dokumente/GitHub/FreetimeOS/lfs/build-glibc/libc_pic.a(stpcpy.os)
                              /home/j/Dokumente/GitHub/FreetimeOS/lfs/build-glibc/elf/dl-allobjs.os (__stpcpy)
/home/j/Dokumente/GitHub/FreetimeOS/lfs/build-glibc/libc_pic.a(strchr.os)
                              /home/j/Dokumente/GitHub/FreetimeOS/lfs/build-glibc/elf/dl-allobjs.os (strchr)
/home/j/Dokumente/GitHub/FreetimeOS/lfs/build-glibc/libc_pic.a(strcmp.os)
                              /home/j/Dokumente/GitHub/FreetimeOS/lfs/build-glibc/elf/dl-allobjs.os (strcmp)
/home/j/Dokumente/GitHub/FreetimeOS/lfs/build-glibc/libc_pic.a(strcspn.os)
                              /home/j/Dokumente/GitHub/FreetimeOS/lfs/build-glibc/elf/dl-allobjs.os (strcspn)
/home/j/Dokumente/GitHub/FreetimeOS/lfs/build-glibc/libc_pic.a(strdup.os)
                              /home/j/Dokumente/GitHub/FreetimeOS/lfs/build-glibc/elf/dl-allobjs.os (__strdup)
/home/j/Dokumente/GitHub/FreetimeOS/lfs/build-glibc/libc_pic.a(strerrorname_np.os)
                              /home/j/Dokumente/GitHub/FreetimeOS/lfs/build-glibc/elf/dl-allobjs.os (strerrorname_np)
/home/j/Dokumente/GitHub/FreetimeOS/lfs/build-glibc/libc_pic.a(strlen.os)
                              /home/j/Dokumente/GitHub/FreetimeOS/lfs/build-glibc/elf/dl-allobjs.os (strlen)
/home/j/Dokumente/GitHub/FreetimeOS/lfs/build-glibc/libc_pic.a(strncmp.os)
                              /home/j/Dokumente/GitHub/FreetimeOS/lfs/build-glibc/elf/dl-allobjs.os (strncmp)
/home/j/Dokumente/GitHub/FreetimeOS/lfs/build-glibc/libc_pic.a(strnlen.os)
                              /home/j/Dokumente/GitHub/FreetimeOS/lfs/build-glibc/elf/dl-allobjs.os (strnlen)
/home/j/Dokumente/GitHub/FreetimeOS/lfs/build-glibc/libc_pic.a(memchr-avx2.os)
                              /home/j/Dokumente/GitHub/FreetimeOS/lfs/build-glibc/libc_pic.a(memchr.os) (__memchr_avx2)
/home/j/Dokumente/GitHub/FreetimeOS/lfs/build-glibc/libc_pic.a(memchr-avx2-rtm.os)
                              /home/j/Dokumente/GitHub/FreetimeOS/lfs/build-glibc/libc_pic.a(memchr.os) (__memchr_avx2_rtm)
/home/j/Dokumente/GitHub/FreetimeOS/lfs/build-glibc/libc_pic.a(memchr-evex.os)
                              /home/j/Dokumente/GitHub/FreetimeOS/lfs/build-glibc/libc_pic.a(memchr.os) (__memchr_evex)
/home/j/Dokumente/GitHub/FreetimeOS/lfs/build-glibc/libc_pic.a(memchr-evex-rtm.os)
                              /home/j/Dokumente/GitHub/FreetimeOS/lfs/build-glibc/libc_pic.a(memchr.os) (__memchr_evex_rtm)
/home/j/Dokumente/GitHub/FreetimeOS/lfs/build-glibc/libc_pic.a(memchr-sse2.os)
                              /home/j/Dokumente/GitHub/FreetimeOS/lfs/build-glibc/libc_pic.a(memchr.os) (__memchr_sse2)
/home/j/Dokumente/GitHub/FreetimeOS/lfs/build-glibc/libc_pic.a(memcmp-avx2-movbe.os)
                              /home/j/Dokumente/GitHub/FreetimeOS/lfs/build-glibc/libc_pic.a(memcmp.os) (__memcmp_avx2_movbe)
/home/j/Dokumente/GitHub/FreetimeOS/lfs/build-glibc/libc_pic.a(memcmp-avx2-movbe-rtm.os)
                              /home/j/Dokumente/GitHub/FreetimeOS/lfs/build-glibc/libc_pic.a(memcmp.os) (__memcmp_avx2_movbe_rtm)
/home/j/Dokumente/GitHub/FreetimeOS/lfs/build-glibc/libc_pic.a(memcmp-evex-movbe.os)
                              /home/j/Dokumente/GitHub/FreetimeOS/lfs/build-glibc/libc_pic.a(memcmp.os) (__memcmp_evex_movbe)
/home/j/Dokumente/GitHub/FreetimeOS/lfs/build-glibc/libc_pic.a(memcmp-sse2.os)
                              /home/j/Dokumente/GitHub/FreetimeOS/lfs/build-glibc/libc_pic.a(memcmp.os) (__memcmp_sse2)
/home/j/Dokumente/GitHub/FreetimeOS/lfs/build-glibc/libc_pic.a(memmove-avx-unaligned-erms.os)
                              /home/j/Dokumente/GitHub/FreetimeOS/lfs/build-glibc/libc_pic.a(mempcpy.os) (__mempcpy_avx_unaligned)
/home/j/Dokumente/GitHub/FreetimeOS/lfs/build-glibc/libc_pic.a(memmove-avx-unaligned-erms-rtm.os)
                              /home/j/Dokumente/GitHub/FreetimeOS/lfs/build-glibc/libc_pic.a(mempcpy.os) (__mempcpy_avx_unaligned_rtm)
/home/j/Dokumente/GitHub/FreetimeOS/lfs/build-glibc/libc_pic.a(memmove-avx512-no-vzeroupper.os)
                              /home/j/Dokumente/GitHub/FreetimeOS/lfs/build-glibc/libc_pic.a(mempcpy.os) (__mempcpy_avx512_no_vzeroupper)
/home/j/Dokumente/GitHub/FreetimeOS/lfs/build-glibc/libc_pic.a(memmove-avx512-unaligned-erms.os)
                              /home/j/Dokumente/GitHub/FreetimeOS/lfs/build-glibc/libc_pic.a(mempcpy.os) (__mempcpy_avx512_unaligned)
/home/j/Dokumente/GitHub/FreetimeOS/lfs/build-glibc/libc_pic.a(memmove-erms.os)
                              /home/j/Dokumente/GitHub/FreetimeOS/lfs/build-glibc/libc_pic.a(mempcpy.os) (__mempcpy_erms)
/home/j/Dokumente/GitHub/FreetimeOS/lfs/build-glibc/libc_pic.a(memmove-evex-unaligned-erms.os)
                              /home/j/Dokumente/GitHub/FreetimeOS/lfs/build-glibc/libc_pic.a(mempcpy.os) (__mempcpy_evex_unaligned)
/home/j/Dokumente/GitHub/FreetimeOS/lfs/build-glibc/libc_pic.a(memmove-sse2-unaligned-erms.os)
                              /home/j/Dokumente/GitHub/FreetimeOS/lfs/build-glibc/libc_pic.a(mempcpy.os) (__mempcpy_sse2_unaligned)
/home/j/Dokumente/GitHub/FreetimeOS/lfs/build-glibc/libc_pic.a(memmove-ssse3.os)
                              /home/j/Dokumente/GitHub/FreetimeOS/lfs/build-glibc/libc_pic.a(mempcpy.os) (__mempcpy_ssse3)
/home/j/Dokumente/GitHub/FreetimeOS/lfs/build-glibc/libc_pic.a(memset-avx2-unaligned-erms.os)
                              /home/j/Dokumente/GitHub/FreetimeOS/lfs/build-glibc/libc_pic.a(memset.os) (__memset_avx2_unaligned)
/home/j/Dokumente/GitHub/FreetimeOS/lfs/build-glibc/libc_pic.a(memset-avx2-unaligned-erms-rtm.os)
                              /home/j/Dokumente/GitHub/FreetimeOS/lfs/build-glibc/libc_pic.a(memset.os) (__memset_avx2_unaligned_rtm)
/home/j/Dokumente/GitHub/FreetimeOS/lfs/build-glibc/libc_pic.a(memset-avx512-no-vzeroupper.os)
                              /home/j/Dokumente/GitHub/FreetimeOS/lfs/build-glibc/libc_pic.a(memset.os) (__memset_avx512_no_vzeroupper)
/home/j/Dokumente/GitHub/FreetimeOS/lfs/build-glibc/libc_pic.a(memset-avx512-unaligned-erms.os)
                              /home/j/Dokumente/GitHub/FreetimeOS/lfs/build-glibc/libc_pic.a(memset.os) (__memset_avx512_unaligned)
/home/j/Dokumente/GitHub/FreetimeOS/lfs/build-glibc/libc_pic.a(memset-erms.os)
                              /home/j/Dokumente/GitHub/FreetimeOS/lfs/build-glibc/libc_pic.a(memset.os) (__memset_erms)
/home/j/Dokumente/GitHub/FreetimeOS/lfs/build-glibc/libc_pic.a(memset-evex-unaligned-erms.os)
                              /home/j/Dokumente/GitHub/FreetimeOS/lfs/build-glibc/libc_pic.a(memset.os) (__memset_evex_unaligned)
/home/j/Dokumente/GitHub/FreetimeOS/lfs/build-glibc/libc_pic.a(memset-sse2-unaligned-erms.os)
                              /home/j/Dokumente/GitHub/FreetimeOS/lfs/build-glibc/libc_pic.a(memset.os) (__memset_sse2_unaligned)
/home/j/Dokumente/GitHub/FreetimeOS/lfs/build-glibc/libc_pic.a(stpcpy-avx2.os)
                              /home/j/Dokumente/GitHub/FreetimeOS/lfs/build-glibc/libc_pic.a(stpcpy.os) (__stpcpy_avx2)
/home/j/Dokumente/GitHub/FreetimeOS/lfs/build-glibc/libc_pic.a(stpcpy-avx2-rtm.os)
                              /home/j/Dokumente/GitHub/FreetimeOS/lfs/build-glibc/libc_pic.a(stpcpy.os) (__stpcpy_avx2_rtm)
/home/j/Dokumente/GitHub/FreetimeOS/lfs/build-glibc/libc_pic.a(stpcpy-evex.os)
                              /home/j/Dokumente/GitHub/FreetimeOS/lfs/build-glibc/libc_pic.a(stpcpy.os) (__stpcpy_evex)
/home/j/Dokumente/GitHub/FreetimeOS/lfs/build-glibc/libc_pic.a(stpcpy-sse2.os)
                              /home/j/Dokumente/GitHub/FreetimeOS/lfs/build-glibc/libc_pic.a(stpcpy.os) (__stpcpy_sse2)
/home/j/Dokumente/GitHub/FreetimeOS/lfs/build-glibc/libc_pic.a(stpcpy-sse2-unaligned.os)
                              /home/j/Dokumente/GitHub/FreetimeOS/lfs/build-glibc/libc_pic.a(stpcpy.os) (__stpcpy_sse2_unaligned)
/home/j/Dokumente/GitHub/FreetimeOS/lfs/build-glibc/libc_pic.a(strchr-avx2.os)
                              /home/j/Dokumente/GitHub/FreetimeOS/lfs/build-glibc/libc_pic.a(strchr.os) (__strchr_avx2)
/home/j/Dokumente/GitHub/FreetimeOS/lfs/build-glibc/libc_pic.a(strchr-avx2-rtm.os)
                              /home/j/Dokumente/GitHub/FreetimeOS/lfs/build-glibc/libc_pic.a(strchr.os) (__strchr_avx2_rtm)
/home/j/Dokumente/GitHub/FreetimeOS/lfs/build-glibc/libc_pic.a(strchr-evex.os)
                              /home/j/Dokumente/GitHub/FreetimeOS/lfs/build-glibc/libc_pic.a(strchr.os) (__strchr_evex)
/home/j/Dokumente/GitHub/FreetimeOS/lfs/build-glibc/libc_pic.a(strchr-sse2.os)
                              /home/j/Dokumente/GitHub/FreetimeOS/lfs/build-glibc/libc_pic.a(strchr.os) (__strchr_sse2)
/home/j/Dokumente/GitHub/FreetimeOS/lfs/build-glibc/libc_pic.a(strchr-sse2-no-bsf.os)
                              /home/j/Dokumente/GitHub/FreetimeOS/lfs/build-glibc/libc_pic.a(strchr.os) (__strchr_sse2_no_bsf)
/home/j/Dokumente/GitHub/FreetimeOS/lfs/build-glibc/libc_pic.a(strcmp-avx2.os)
                              /home/j/Dokumente/GitHub/FreetimeOS/lfs/build-glibc/libc_pic.a(strcmp.os) (__strcmp_avx2)
/home/j/Dokumente/GitHub/FreetimeOS/lfs/build-glibc/libc_pic.a(strcmp-avx2-rtm.os)
                              /home/j/Dokumente/GitHub/FreetimeOS/lfs/build-glibc/libc_pic.a(strcmp.os) (__strcmp_avx2_rtm)
/home/j/Dokumente/GitHub/FreetimeOS/lfs/build-glibc/libc_pic.a(strcmp-evex.os)
                              /home/j/Dokumente/GitHub/FreetimeOS/lfs/build-glibc/libc_pic.a(strcmp.os) (__strcmp_evex)
/home/j/Dokumente/GitHub/FreetimeOS/lfs/build-glibc/libc_pic.a(strcmp-sse2.os)
                              /home/j/Dokumente/GitHub/FreetimeOS/lfs/build-glibc/libc_pic.a(strcmp.os) (__strcmp_sse2)
/home/j/Dokumente/GitHub/FreetimeOS/lfs/build-glibc/libc_pic.a(strcmp-sse2-unaligned.os)
                              /home/j/Dokumente/GitHub/FreetimeOS/lfs/build-glibc/libc_pic.a(strcmp.os) (__strcmp_sse2_unaligned)
/home/j/Dokumente/GitHub/FreetimeOS/lfs/build-glibc/libc_pic.a(strcmp-sse4_2.os)
                              /home/j/Dokumente/GitHub/FreetimeOS/lfs/build-glibc/libc_pic.a(strcmp.os) (__strcmp_sse42)
/home/j/Dokumente/GitHub/FreetimeOS/lfs/build-glibc/libc_pic.a(strcspn-sse4.os)
                              /home/j/Dokumente/GitHub/FreetimeOS/lfs/build-glibc/libc_pic.a(strcspn.os) (__strcspn_sse42)
/home/j/Dokumente/GitHub/FreetimeOS/lfs/build-glibc/libc_pic.a(strlen-avx2.os)
                              /home/j/Dokumente/GitHub/FreetimeOS/lfs/build-glibc/libc_pic.a(strlen.os) (__strlen_avx2)
/home/j/Dokumente/GitHub/FreetimeOS/lfs/build-glibc/libc_pic.a(strlen-avx2-rtm.os)
                              /home/j/Dokumente/GitHub/FreetimeOS/lfs/build-glibc/libc_pic.a(strlen.os) (__strlen_avx2_rtm)
/home/j/Dokumente/GitHub/FreetimeOS/lfs/build-glibc/libc_pic.a(strlen-evex.os)
                              /home/j/Dokumente/GitHub/FreetimeOS/lfs/build-glibc/libc_pic.a(strlen.os) (__strlen_evex)
/home/j/Dokumente/GitHub/FreetimeOS/lfs/build-glibc/libc_pic.a(strlen-sse2.os)
                              /home/j/Dokumente/GitHub/FreetimeOS/lfs/build-glibc/libc_pic.a(strlen.os) (__strlen_sse2)
/home/j/Dokumente/GitHub/FreetimeOS/lfs/build-glibc/libc_pic.a(strncmp-avx2.os)
                              /home/j/Dokumente/GitHub/FreetimeOS/lfs/build-glibc/libc_pic.a(strncmp.os) (__strncmp_avx2)
/home/j/Dokumente/GitHub/FreetimeOS/lfs/build-glibc/libc_pic.a(strncmp-avx2-rtm.os)
                              /home/j/Dokumente/GitHub/FreetimeOS/lfs/build-glibc/libc_pic.a(strncmp.os) (__strncmp_avx2_rtm)
/home/j/Dokumente/GitHub/FreetimeOS/lfs/build-glibc/libc_pic.a(strncmp-evex.os)
                              /home/j/Dokumente/GitHub/FreetimeOS/lfs/build-glibc/libc_pic.a(strncmp.os) (__strncmp_evex)
/home/j/Dokumente/GitHub/FreetimeOS/lfs/build-glibc/libc_pic.a(strncmp-sse2.os)
                              /home/j/Dokumente/GitHub/FreetimeOS/lfs/build-glibc/libc_pic.a(strncmp.os) (__strncmp_sse2)
/home/j/Dokumente/GitHub/FreetimeOS/lfs/build-glibc/libc_pic.a(strncmp-sse4_2.os)
                              /home/j/Dokumente/GitHub/FreetimeOS/lfs/build-glibc/libc_pic.a(strncmp.os) (__strncmp_sse42)
/home/j/Dokumente/GitHub/FreetimeOS/lfs/build-glibc/libc_pic.a(strnlen-avx2.os)
                              /home/j/Dokumente/GitHub/FreetimeOS/lfs/build-glibc/libc_pic.a(strnlen.os) (__strnlen_avx2)
/home/j/Dokumente/GitHub/FreetimeOS/lfs/build-glibc/libc_pic.a(strnlen-avx2-rtm.os)
                              /home/j/Dokumente/GitHub/FreetimeOS/lfs/build-glibc/libc_pic.a(strnlen.os) (__strnlen_avx2_rtm)
/home/j/Dokumente/GitHub/FreetimeOS/lfs/build-glibc/libc_pic.a(strnlen-evex.os)
                              /home/j/Dokumente/GitHub/FreetimeOS/lfs/build-glibc/libc_pic.a(strnlen.os) (__strnlen_evex)
/home/j/Dokumente/GitHub/FreetimeOS/lfs/build-glibc/libc_pic.a(strnlen-sse2.os)
                              /home/j/Dokumente/GitHub/FreetimeOS/lfs/build-glibc/libc_pic.a(strnlen.os) (__strnlen_sse2)
/home/j/Dokumente/GitHub/FreetimeOS/lfs/build-glibc/libc_pic.a(varshift.os)
                              /home/j/Dokumente/GitHub/FreetimeOS/lfs/build-glibc/libc_pic.a(strcspn-sse4.os) (___m128i_shift_right)
/home/j/Dokumente/GitHub/FreetimeOS/lfs/build-glibc/libc_pic.a(strcspn-generic.os)
                              /home/j/Dokumente/GitHub/FreetimeOS/lfs/build-glibc/libc_pic.a(strcspn.os) (__strcspn_generic)
/home/j/Dokumente/GitHub/FreetimeOS/lfs/build-glibc/libc_pic.a(cacheinfo.os)
                              /home/j/Dokumente/GitHub/FreetimeOS/lfs/build-glibc/libc_pic.a(memmove-avx512-no-vzeroupper.os) (__x86_shared_cache_size_half)
/home/j/Dokumente/GitHub/FreetimeOS/lfs/build-glibc/libc_pic.a(closedir.os)
                              /home/j/Dokumente/GitHub/FreetimeOS/lfs/build-glibc/elf/dl-allobjs.os (__closedir)
/home/j/Dokumente/GitHub/FreetimeOS/lfs/build-glibc/libc_pic.a(rewinddir.os)
                              /home/j/Dokumente/GitHub/FreetimeOS/lfs/build-glibc/elf/dl-allobjs.os (__rewinddir)
/home/j/Dokumente/GitHub/FreetimeOS/lfs/build-glibc/libc_pic.a(readdir64.os)
                              /home/j/Dokumente/GitHub/FreetimeOS/lfs/build-glibc/elf/dl-allobjs.os (__readdir64)
/home/j/Dokumente/GitHub/FreetimeOS/lfs/build-glibc/libc_pic.a(fdopendir.os)
                              /home/j/Dokumente/GitHub/FreetimeOS/lfs/build-glibc/elf/dl-allobjs.os (__fdopendir)
/home/j/Dokumente/GitHub/FreetimeOS/lfs/build-glibc/libc_pic.a(_exit.os)
                              /home/j/Dokumente/GitHub/FreetimeOS/lfs/build-glibc/elf/dl-allobjs.os (__GI__exit)
/home/j/Dokumente/GitHub/FreetimeOS/lfs/build-glibc/libc_pic.a(getpid.os)
                              /home/j/Dokumente/GitHub/FreetimeOS/lfs/build-glibc/elf/dl-allobjs.os (__getpid)
/home/j/Dokumente/GitHub/FreetimeOS/lfs/build-glibc/libc_pic.a(uname.os)
                              /home/j/Dokumente/GitHub/FreetimeOS/lfs/build-glibc/elf/dl-allobjs.os (__uname)
/home/j/Dokumente/GitHub/FreetimeOS/lfs/build-glibc/libc_pic.a(environ.os)
                              /home/j/Dokumente/GitHub/FreetimeOS/lfs/build-glibc/elf/dl-allobjs.os (__environ)
/home/j/Dokumente/GitHub/FreetimeOS/lfs/build-glibc/libc_pic.a(access.os)
                              /home/j/Dokumente/GitHub/FreetimeOS/lfs/build-glibc/elf/dl-allobjs.os (__access)
/home/j/Dokumente/GitHub/FreetimeOS/lfs/build-glibc/libc_pic.a(fstat64.os)
                              /home/j/Dokumente/GitHub/FreetimeOS/lfs/build-glibc/elf/dl-allobjs.os (__GI___fstat64)
/home/j/Dokumente/GitHub/FreetimeOS/lfs/build-glibc/libc_pic.a(fstatat64.os)
                              /home/j/Dokumente/GitHub/FreetimeOS/lfs/build-glibc/elf/dl-allobjs.os (__GI___fstatat64)
/home/j/Dokumente/GitHub/FreetimeOS/lfs/build-glibc/libc_pic.a(lseek64.os)
                              /home/j/Dokumente/GitHub/FreetimeOS/lfs/build-glibc/libc_pic.a(rewinddir.os) (__GI___lseek)
/home/j/Dokumente/GitHub/FreetimeOS/lfs/build-glibc/libc_pic.a(lstat64.os)
                              /home/j/Dokumente/GitHub/FreetimeOS/lfs/build-glibc/elf/dl-allobjs.os (__GI___lstat64)
/home/j/Dokumente/GitHub/FreetimeOS/lfs/build-glibc/libc_pic.a(openat64.os)
                              /home/j/Dokumente/GitHub/FreetimeOS/lfs/build-glibc/elf/dl-allobjs.os (__openat64)
/home/j/Dokumente/GitHub/FreetimeOS/lfs/build-glibc/libc_pic.a(stat64.os)
                              /home/j/Dokumente/GitHub/FreetimeOS/lfs/build-glibc/elf/dl-allobjs.os (__GI___stat64)
/home/j/Dokumente/GitHub/FreetimeOS/lfs/build-glibc/libc_pic.a(close_nocancel.os)
                              /home/j/Dokumente/GitHub/FreetimeOS/lfs/build-glibc/elf/dl-allobjs.os (__GI___close_nocancel)
/home/j/Dokumente/GitHub/FreetimeOS/lfs/build-glibc/libc_pic.a(fcntl_nocancel.os)
                              /home/j/Dokumente/GitHub/FreetimeOS/lfs/build-glibc/elf/dl-allobjs.os (__GI___fcntl64_nocancel)
/home/j/Dokumente/GitHub/FreetimeOS/lfs/build-glibc/libc_pic.a(open64_nocancel.os)
                              /home/j/Dokumente/GitHub/FreetimeOS/lfs/build-glibc/elf/dl-allobjs.os (__GI___open64_nocancel)
/home/j/Dokumente/GitHub/FreetimeOS/lfs/build-glibc/libc_pic.a(pread64_nocancel.os)
                              /home/j/Dokumente/GitHub/FreetimeOS/lfs/build-glibc/elf/dl-allobjs.os (__GI___pread64_nocancel)
/home/j/Dokumente/GitHub/FreetimeOS/lfs/build-glibc/libc_pic.a(read_nocancel.os)
                              /home/j/Dokumente/GitHub/FreetimeOS/lfs/build-glibc/elf/dl-allobjs.os (__GI___read_nocancel)
/home/j/Dokumente/GitHub/FreetimeOS/lfs/build-glibc/libc_pic.a(write_nocancel.os)
                              /home/j/Dokumente/GitHub/FreetimeOS/lfs/build-glibc/elf/dl-allobjs.os (__GI___write_nocancel)
/home/j/Dokumente/GitHub/FreetimeOS/lfs/build-glibc/libc_pic.a(mmap64.os)
                              /home/j/Dokumente/GitHub/FreetimeOS/lfs/build-glibc/elf/dl-allobjs.os (__mmap)
/home/j/Dokumente/GitHub/FreetimeOS/lfs/build-glibc/libc_pic.a(mprotect.os)
                              /home/j/Dokumente/GitHub/FreetimeOS/lfs/build-glibc/elf/dl-allobjs.os (__mprotect)
/home/j/Dokumente/GitHub/FreetimeOS/lfs/build-glibc/libc_pic.a(munmap.os)
                              /home/j/Dokumente/GitHub/FreetimeOS/lfs/build-glibc/elf/dl-allobjs.os (__munmap)
/home/j/Dokumente/GitHub/FreetimeOS/lfs/build-glibc/libc_pic.a(single_threaded.os)
                              /home/j/Dokumente/GitHub/FreetimeOS/lfs/build-glibc/libc_pic.a(openat64.os) (__libc_single_threaded_internal)
/home/j/Dokumente/GitHub/FreetimeOS/lfs/build-glibc/libc_pic.a(setvmaname.os)
                              /home/j/Dokumente/GitHub/FreetimeOS/lfs/build-glibc/elf/dl-allobjs.os (__set_vma_name)
/home/j/Dokumente/GitHub/FreetimeOS/lfs/build-glibc/libc_pic.a(profil.os)
                              /home/j/Dokumente/GitHub/FreetimeOS/lfs/build-glibc/elf/dl-allobjs.os (__profil)
/home/j/Dokumente/GitHub/FreetimeOS/lfs/build-glibc/libc_pic.a(prof-freq.os)
                              /home/j/Dokumente/GitHub/FreetimeOS/lfs/build-glibc/libc_pic.a(profil.os) (__GI___profile_frequency)
/home/j/Dokumente/GitHub/FreetimeOS/lfs/build-glibc/libc_pic.a(dl-addr-obj.os)
                              /home/j/Dokumente/GitHub/FreetimeOS/lfs/build-glibc/elf/dl-allobjs.os (_dl_addr_inside_object)
/home/j/Dokumente/GitHub/FreetimeOS/lfs/build-glibc/libc_pic.a(sigaction.os)
                              /home/j/Dokumente/GitHub/FreetimeOS/lfs/build-glibc/libc_pic.a(profil.os) (__GI___sigaction)
/home/j/Dokumente/GitHub/FreetimeOS/lfs/build-glibc/libc_pic.a(libc_sigaction.os)
                              /home/j/Dokumente/GitHub/FreetimeOS/lfs/build-glibc/libc_pic.a(sigaction.os) (__GI___libc_sigaction)
/home/j/Dokumente/GitHub/FreetimeOS/lfs/build-glibc/libc_pic.a(errname.os)
                              /home/j/Dokumente/GitHub/FreetimeOS/lfs/build-glibc/libc_pic.a(strerrorname_np.os) (__get_errname)
/home/j/Dokumente/GitHub/FreetimeOS/lfs/build-glibc/libc_pic.a(strchrnul.os)
                              /home/j/Dokumente/GitHub/FreetimeOS/lfs/build-glibc/libc_pic.a(strcspn-generic.os) (__GI___strchrnul)
/home/j/Dokumente/GitHub/FreetimeOS/lfs/build-glibc/libc_pic.a(strchrnul-avx2.os)
                              /home/j/Dokumente/GitHub/FreetimeOS/lfs/build-glibc/libc_pic.a(strchrnul.os) (__strchrnul_avx2)
/home/j/Dokumente/GitHub/FreetimeOS/lfs/build-glibc/libc_pic.a(strchrnul-avx2-rtm.os)
                              /home/j/Dokumente/GitHub/FreetimeOS/lfs/build-glibc/libc_pic.a(strchrnul.os) (__strchrnul_avx2_rtm)
/home/j/Dokumente/GitHub/FreetimeOS/lfs/build-glibc/libc_pic.a(strchrnul-evex.os)
                              /home/j/Dokumente/GitHub/FreetimeOS/lfs/build-glibc/libc_pic.a(strchrnul.os) (__strchrnul_evex)
/home/j/Dokumente/GitHub/FreetimeOS/lfs/build-glibc/libc_pic.a(strchrnul-sse2.os)
                              /home/j/Dokumente/GitHub/FreetimeOS/lfs/build-glibc/libc_pic.a(strchrnul.os) (__strchrnul_sse2)
/home/j/Dokumente/GitHub/FreetimeOS/lfs/build-glibc/libc_pic.a(setitimer.os)
                              /home/j/Dokumente/GitHub/FreetimeOS/lfs/build-glibc/libc_pic.a(profil.os) (__setitimer)
/home/j/Dokumente/GitHub/FreetimeOS/lfs/build-glibc/libc_pic.a(getdents64.os)
                              /home/j/Dokumente/GitHub/FreetimeOS/lfs/build-glibc/libc_pic.a(readdir64.os) (__GI___getdents64)

Merging program properties

Removed property 0xc0000002 to merge /home/j/Dokumente/GitHub/FreetimeOS/lfs/build-glibc/elf/dl-allobjs.os (0x3) and /home/j/Dokumente/GitHub/FreetimeOS/lfs/build-glibc/elf/librtld.mapT.o (not found)
Removed property 0xc0000002 to merge /home/j/Dokumente/GitHub/FreetimeOS/lfs/build-glibc/elf/dl-allobjs.os (not found) and /home/j/Dokumente/GitHub/FreetimeOS/lfs/build-glibc/libc_pic.a(check_fds.os) (0x3)
Removed property 0xc0000002 to merge /home/j/Dokumente/GitHub/FreetimeOS/lfs/build-glibc/elf/dl-allobjs.os (not found) and /home/j/Dokumente/GitHub/FreetimeOS/lfs/build-glibc/libc_pic.a(errno.os) (0x3)
Removed property 0xc0000002 to merge /home/j/Dokumente/GitHub/FreetimeOS/lfs/build-glibc/elf/dl-allobjs.os (not found) and /home/j/Dokumente/GitHub/FreetimeOS/lfs/build-glibc/libc_pic.a(setjmp.os) (0x3)
Removed property 0xc0000002 to merge /home/j/Dokumente/GitHub/FreetimeOS/lfs/build-glibc/elf/dl-allobjs.os (not found) and /home/j/Dokumente/GitHub/FreetimeOS/lfs/build-glibc/libc_pic.a(__longjmp.os) (0x3)
Removed property 0xc0000002 to merge /home/j/Dokumente/GitHub/FreetimeOS/lfs/build-glibc/elf/dl-allobjs.os (not found) and /home/j/Dokumente/GitHub/FreetimeOS/lfs/build-glibc/libc_pic.a(lowlevellock.os) (0x3)
Removed property 0xc0000002 to merge /home/j/Dokumente/GitHub/FreetimeOS/lfs/build-glibc/elf/dl-allobjs.os (not found) and /home/j/Dokumente/GitHub/FreetimeOS/lfs/build-glibc/libc_pic.a(scratch_buffer_set_array_size.os) (0x3)
Removed property 0xc0000002 to merge /home/j/Dokumente/GitHub/FreetimeOS/lfs/build-glibc/elf/dl-allobjs.os (not found) and /home/j/Dokumente/GitHub/FreetimeOS/lfs/build-glibc/libc_pic.a(memchr.os) (0x3)
Removed property 0xc0000002 to merge /home/j/Dokumente/GitHub/FreetimeOS/lfs/build-glibc/elf/dl-allobjs.os (not found) and /home/j/Dokumente/GitHub/FreetimeOS/lfs/build-glibc/libc_pic.a(memcmp.os) (0x3)
Removed property 0xc0000002 to merge /home/j/Dokumente/GitHub/FreetimeOS/lfs/build-glibc/elf/dl-allobjs.os (not found) and /home/j/Dokumente/GitHub/FreetimeOS/lfs/build-glibc/libc_pic.a(memcpy.os) (0x3)
Removed property 0xc0000002 to merge /home/j/Dokumente/GitHub/FreetimeOS/lfs/build-glibc/elf/dl-allobjs.os (not found) and /home/j/Dokumente/GitHub/FreetimeOS/lfs/build-glibc/libc_pic.a(memmove.os) (0x3)
Removed property 0xc0000002 to merge /home/j/Dokumente/GitHub/FreetimeOS/lfs/build-glibc/elf/dl-allobjs.os (not found) and /home/j/Dokumente/GitHub/FreetimeOS/lfs/build-glibc/libc_pic.a(mempcpy.os) (0x3)
Removed property 0xc0000002 to merge /home/j/Dokumente/GitHub/FreetimeOS/lfs/build-glibc/elf/dl-allobjs.os (not found) and /home/j/Dokumente/GitHub/FreetimeOS/lfs/build-glibc/libc_pic.a(memset.os) (0x3)
Removed property 0xc0000002 to merge /home/j/Dokumente/GitHub/FreetimeOS/lfs/build-glibc/elf/dl-allobjs.os (not found) and /home/j/Dokumente/GitHub/FreetimeOS/lfs/build-glibc/libc_pic.a(stpcpy.os) (0x3)
Removed property 0xc0000002 to merge /home/j/Dokumente/GitHub/FreetimeOS/lfs/build-glibc/elf/dl-allobjs.os (not found) and /home/j/Dokumente/GitHub/FreetimeOS/lfs/build-glibc/libc_pic.a(strchr.os) (0x3)
Removed property 0xc0000002 to merge /home/j/Dokumente/GitHub/FreetimeOS/lfs/build-glibc/elf/dl-allobjs.os (not found) and /home/j/Dokumente/GitHub/FreetimeOS/lfs/build-glibc/libc_pic.a(strcmp.os) (0x3)
Removed property 0xc0000002 to merge /home/j/Dokumente/GitHub/FreetimeOS/lfs/build-glibc/elf/dl-allobjs.os (not found) and /home/j/Dokumente/GitHub/FreetimeOS/lfs/build-glibc/libc_pic.a(strcspn.os) (0x3)
Removed property 0xc0000002 to merge /home/j/Dokumente/GitHub/FreetimeOS/lfs/build-glibc/elf/dl-allobjs.os (not found) and /home/j/Dokumente/GitHub/FreetimeOS/lfs/build-glibc/libc_pic.a(strdup.os) (0x3)
Removed property 0xc0000002 to merge /home/j/Dokumente/GitHub/FreetimeOS/lfs/build-glibc/elf/dl-allobjs.os (not found) and /home/j/Dokumente/GitHub/FreetimeOS/lfs/build-glibc/libc_pic.a(strerrorname_np.os) (0x3)
Removed property 0xc0000002 to merge /home/j/Dokumente/GitHub/FreetimeOS/lfs/build-glibc/elf/dl-allobjs.os (not found) and /home/j/Dokumente/GitHub/FreetimeOS/lfs/build-glibc/libc_pic.a(strlen.os) (0x3)
Removed property 0xc0000002 to merge /home/j/Dokumente/GitHub/FreetimeOS/lfs/build-glibc/elf/dl-allobjs.os (not found) and /home/j/Dokumente/GitHub/FreetimeOS/lfs/build-glibc/libc_pic.a(strncmp.os) (0x3)
Removed property 0xc0000002 to merge /home/j/Dokumente/GitHub/FreetimeOS/lfs/build-glibc/elf/dl-allobjs.os (not found) and /home/j/Dokumente/GitHub/FreetimeOS/lfs/build-glibc/libc_pic.a(strnlen.os) (0x3)
Removed property 0xc0000002 to merge /home/j/Dokumente/GitHub/FreetimeOS/lfs/build-glibc/elf/dl-allobjs.os (not found) and /home/j/Dokumente/GitHub/FreetimeOS/lfs/build-glibc/libc_pic.a(memchr-avx2.os) (0x3)
Removed property 0xc0000002 to merge /home/j/Dokumente/GitHub/FreetimeOS/lfs/build-glibc/elf/dl-allobjs.os (not found) and /home/j/Dokumente/GitHub/FreetimeOS/lfs/build-glibc/libc_pic.a(memchr-avx2-rtm.os) (0x3)
Removed property 0xc0000002 to merge /home/j/Dokumente/GitHub/FreetimeOS/lfs/build-glibc/elf/dl-allobjs.os (not found) and /home/j/Dokumente/GitHub/FreetimeOS/lfs/build-glibc/libc_pic.a(memchr-evex.os) (0x3)
Removed property 0xc0000002 to merge /home/j/Dokumente/GitHub/FreetimeOS/lfs/build-glibc/elf/dl-allobjs.os (not found) and /home/j/Dokumente/GitHub/FreetimeOS/lfs/build-glibc/libc_pic.a(memchr-evex-rtm.os) (0x3)
Removed property 0xc0000002 to merge /home/j/Dokumente/GitHub/FreetimeOS/lfs/build-glibc/elf/dl-allobjs.os (not found) and /home/j/Dokumente/GitHub/FreetimeOS/lfs/build-glibc/libc_pic.a(memchr-sse2.os) (0x3)
Removed property 0xc0000002 to merge /home/j/Dokumente/GitHub/FreetimeOS/lfs/build-glibc/elf/dl-allobjs.os (not found) and /home/j/Dokumente/GitHub/FreetimeOS/lfs/build-glibc/libc_pic.a(memcmp-avx2-movbe.os) (0x3)
Removed property 0xc0000002 to merge /home/j/Dokumente/GitHub/FreetimeOS/lfs/build-glibc/elf/dl-allobjs.os (not found) and /home/j/Dokumente/GitHub/FreetimeOS/lfs/build-glibc/libc_pic.a(memcmp-avx2-movbe-rtm.os) (0x3)
Removed property 0xc0000002 to merge /home/j/Dokumente/GitHub/FreetimeOS/lfs/build-glibc/elf/dl-allobjs.os (not found) and /home/j/Dokumente/GitHub/FreetimeOS/lfs/build-glibc/libc_pic.a(memcmp-evex-movbe.os) (0x3)
Removed property 0xc0000002 to merge /home/j/Dokumente/GitHub/FreetimeOS/lfs/build-glibc/elf/dl-allobjs.os (not found) and /home/j/Dokumente/GitHub/FreetimeOS/lfs/build-glibc/libc_pic.a(memcmp-sse2.os) (0x3)
Removed property 0xc0000002 to merge /home/j/Dokumente/GitHub/FreetimeOS/lfs/build-glibc/elf/dl-allobjs.os (not found) and /home/j/Dokumente/GitHub/FreetimeOS/lfs/build-glibc/libc_pic.a(memmove-avx-unaligned-erms.os) (0x3)
Removed property 0xc0000002 to merge /home/j/Dokumente/GitHub/FreetimeOS/lfs/build-glibc/elf/dl-allobjs.os (not found) and /home/j/Dokumente/GitHub/FreetimeOS/lfs/build-glibc/libc_pic.a(memmove-avx-unaligned-erms-rtm.os) (0x3)
Removed property 0xc0000002 to merge /home/j/Dokumente/GitHub/FreetimeOS/lfs/build-glibc/elf/dl-allobjs.os (not found) and /home/j/Dokumente/GitHub/FreetimeOS/lfs/build-glibc/libc_pic.a(memmove-avx512-no-vzeroupper.os) (0x3)
Removed property 0xc0000002 to merge /home/j/Dokumente/GitHub/FreetimeOS/lfs/build-glibc/elf/dl-allobjs.os (not found) and /home/j/Dokumente/GitHub/FreetimeOS/lfs/build-glibc/libc_pic.a(memmove-avx512-unaligned-erms.os) (0x3)
Removed property 0xc0000002 to merge /home/j/Dokumente/GitHub/FreetimeOS/lfs/build-glibc/elf/dl-allobjs.os (not found) and /home/j/Dokumente/GitHub/FreetimeOS/lfs/build-glibc/libc_pic.a(memmove-erms.os) (0x3)
Removed property 0xc0000002 to merge /home/j/Dokumente/GitHub/FreetimeOS/lfs/build-glibc/elf/dl-allobjs.os (not found) and /home/j/Dokumente/GitHub/FreetimeOS/lfs/build-glibc/libc_pic.a(memmove-evex-unaligned-erms.os) (0x3)
Removed property 0xc0000002 to merge /home/j/Dokumente/GitHub/FreetimeOS/lfs/build-glibc/elf/dl-allobjs.os (not found) and /home/j/Dokumente/GitHub/FreetimeOS/lfs/build-glibc/libc_pic.a(memmove-sse2-unaligned-erms.os) (0x3)
Removed property 0xc0000002 to merge /home/j/Dokumente/GitHub/FreetimeOS/lfs/build-glibc/elf/dl-allobjs.os (not found) and /home/j/Dokumente/GitHub/FreetimeOS/lfs/build-glibc/libc_pic.a(memmove-ssse3.os) (0x3)
Removed property 0xc0000002 to merge /home/j/Dokumente/GitHub/FreetimeOS/lfs/build-glibc/elf/dl-allobjs.os (not found) and /home/j/Dokumente/GitHub/FreetimeOS/lfs/build-glibc/libc_pic.a(memset-avx2-unaligned-erms.os) (0x3)
Removed property 0xc0000002 to merge /home/j/Dokumente/GitHub/FreetimeOS/lfs/build-glibc/elf/dl-allobjs.os (not found) and /home/j/Dokumente/GitHub/FreetimeOS/lfs/build-glibc/libc_pic.a(memset-avx2-unaligned-erms-rtm.os) (0x3)
Removed property 0xc0000002 to merge /home/j/Dokumente/GitHub/FreetimeOS/lfs/build-glibc/elf/dl-allobjs.os (not found) and /home/j/Dokumente/GitHub/FreetimeOS/lfs/build-glibc/libc_pic.a(memset-avx512-no-vzeroupper.os) (0x3)
Removed property 0xc0000002 to merge /home/j/Dokumente/GitHub/FreetimeOS/lfs/build-glibc/elf/dl-allobjs.os (not found) and /home/j/Dokumente/GitHub/FreetimeOS/lfs/build-glibc/libc_pic.a(memset-avx512-unaligned-erms.os) (0x3)
Removed property 0xc0000002 to merge /home/j/Dokumente/GitHub/FreetimeOS/lfs/build-glibc/elf/dl-allobjs.os (not found) and /home/j/Dokumente/GitHub/FreetimeOS/lfs/build-glibc/libc_pic.a(memset-erms.os) (0x3)
Removed property 0xc0000002 to merge /home/j/Dokumente/GitHub/FreetimeOS/lfs/build-glibc/elf/dl-allobjs.os (not found) and /home/j/Dokumente/GitHub/FreetimeOS/lfs/build-glibc/libc_pic.a(memset-evex-unaligned-erms.os) (0x3)
Removed property 0xc0000002 to merge /home/j/Dokumente/GitHub/FreetimeOS/lfs/build-glibc/elf/dl-allobjs.os (not found) and /home/j/Dokumente/GitHub/FreetimeOS/lfs/build-glibc/libc_pic.a(memset-sse2-unaligned-erms.os) (0x3)
Removed property 0xc0000002 to merge /home/j/Dokumente/GitHub/FreetimeOS/lfs/build-glibc/elf/dl-allobjs.os (not found) and /home/j/Dokumente/GitHub/FreetimeOS/lfs/build-glibc/libc_pic.a(stpcpy-avx2.os) (0x3)
Removed property 0xc0000002 to merge /home/j/Dokumente/GitHub/FreetimeOS/lfs/build-glibc/elf/dl-allobjs.os (not found) and /home/j/Dokumente/GitHub/FreetimeOS/lfs/build-glibc/libc_pic.a(stpcpy-avx2-rtm.os) (0x3)
Removed property 0xc0000002 to merge /home/j/Dokumente/GitHub/FreetimeOS/lfs/build-glibc/elf/dl-allobjs.os (not found) and /home/j/Dokumente/GitHub/FreetimeOS/lfs/build-glibc/libc_pic.a(stpcpy-evex.os) (0x3)
Removed property 0xc0000002 to merge /home/j/Dokumente/GitHub/FreetimeOS/lfs/build-glibc/elf/dl-allobjs.os (not found) and /home/j/Dokumente/GitHub/FreetimeOS/lfs/build-glibc/libc_pic.a(stpcpy-sse2.os) (0x3)
Removed property 0xc0000002 to merge /home/j/Dokumente/GitHub/FreetimeOS/lfs/build-glibc/elf/dl-allobjs.os (not found) and /home/j/Dokumente/GitHub/FreetimeOS/lfs/build-glibc/libc_pic.a(stpcpy-sse2-unaligned.os) (0x3)
Removed property 0xc0000002 to merge /home/j/Dokumente/GitHub/FreetimeOS/lfs/build-glibc/elf/dl-allobjs.os (not found) and /home/j/Dokumente/GitHub/FreetimeOS/lfs/build-glibc/libc_pic.a(strchr-avx2.os) (0x3)
Removed property 0xc0000002 to merge /home/j/Dokumente/GitHub/FreetimeOS/lfs/build-glibc/elf/dl-allobjs.os (not found) and /home/j/Dokumente/GitHub/FreetimeOS/lfs/build-glibc/libc_pic.a(strchr-avx2-rtm.os) (0x3)
Removed property 0xc0000002 to merge /home/j/Dokumente/GitHub/FreetimeOS/lfs/build-glibc/elf/dl-allobjs.os (not found) and /home/j/Dokumente/GitHub/FreetimeOS/lfs/build-glibc/libc_pic.a(strchr-evex.os) (0x3)
Removed property 0xc0000002 to merge /home/j/Dokumente/GitHub/FreetimeOS/lfs/build-glibc/elf/dl-allobjs.os (not found) and /home/j/Dokumente/GitHub/FreetimeOS/lfs/build-glibc/libc_pic.a(strchr-sse2.os) (0x3)
Removed property 0xc0000002 to merge /home/j/Dokumente/GitHub/FreetimeOS/lfs/build-glibc/elf/dl-allobjs.os (not found) and /home/j/Dokumente/GitHub/FreetimeOS/lfs/build-glibc/libc_pic.a(strchr-sse2-no-bsf.os) (0x3)
Removed property 0xc0000002 to merge /home/j/Dokumente/GitHub/FreetimeOS/lfs/build-glibc/elf/dl-allobjs.os (not found) and /home/j/Dokumente/GitHub/FreetimeOS/lfs/build-glibc/libc_pic.a(strcmp-avx2.os) (0x3)
Removed property 0xc0000002 to merge /home/j/Dokumente/GitHub/FreetimeOS/lfs/build-glibc/elf/dl-allobjs.os (not found) and /home/j/Dokumente/GitHub/FreetimeOS/lfs/build-glibc/libc_pic.a(strcmp-avx2-rtm.os) (0x3)
Removed property 0xc0000002 to merge /home/j/Dokumente/GitHub/FreetimeOS/lfs/build-glibc/elf/dl-allobjs.os (not found) and /home/j/Dokumente/GitHub/FreetimeOS/lfs/build-glibc/libc_pic.a(strcmp-evex.os) (0x3)
Removed property 0xc0000002 to merge /home/j/Dokumente/GitHub/FreetimeOS/lfs/build-glibc/elf/dl-allobjs.os (not found) and /home/j/Dokumente/GitHub/FreetimeOS/lfs/build-glibc/libc_pic.a(strcmp-sse2.os) (0x3)
Removed property 0xc0000002 to merge /home/j/Dokumente/GitHub/FreetimeOS/lfs/build-glibc/elf/dl-allobjs.os (not found) and /home/j/Dokumente/GitHub/FreetimeOS/lfs/build-glibc/libc_pic.a(strcmp-sse2-unaligned.os) (0x3)
Removed property 0xc0000002 to merge /home/j/Dokumente/GitHub/FreetimeOS/lfs/build-glibc/elf/dl-allobjs.os (not found) and /home/j/Dokumente/GitHub/FreetimeOS/lfs/build-glibc/libc_pic.a(strcmp-sse4_2.os) (0x3)
Removed property 0xc0000002 to merge /home/j/Dokumente/GitHub/FreetimeOS/lfs/build-glibc/elf/dl-allobjs.os (not found) and /home/j/Dokumente/GitHub/FreetimeOS/lfs/build-glibc/libc_pic.a(strcspn-sse4.os) (0x3)
Removed property 0xc0000002 to merge /home/j/Dokumente/GitHub/FreetimeOS/lfs/build-glibc/elf/dl-allobjs.os (not found) and /home/j/Dokumente/GitHub/FreetimeOS/lfs/build-glibc/libc_pic.a(strlen-avx2.os) (0x3)
Removed property 0xc0000002 to merge /home/j/Dokumente/GitHub/FreetimeOS/lfs/build-glibc/elf/dl-allobjs.os (not found) and /home/j/Dokumente/GitHub/FreetimeOS/lfs/build-glibc/libc_pic.a(strlen-avx2-rtm.os) (0x3)
Removed property 0xc0000002 to merge /home/j/Dokumente/GitHub/FreetimeOS/lfs/build-glibc/elf/dl-allobjs.os (not found) and /home/j/Dokumente/GitHub/FreetimeOS/lfs/build-glibc/libc_pic.a(strlen-evex.os) (0x3)
Removed property 0xc0000002 to merge /home/j/Dokumente/GitHub/FreetimeOS/lfs/build-glibc/elf/dl-allobjs.os (not found) and /home/j/Dokumente/GitHub/FreetimeOS/lfs/build-glibc/libc_pic.a(strlen-sse2.os) (0x3)
Removed property 0xc0000002 to merge /home/j/Dokumente/GitHub/FreetimeOS/lfs/build-glibc/elf/dl-allobjs.os (not found) and /home/j/Dokumente/GitHub/FreetimeOS/lfs/build-glibc/libc_pic.a(strncmp-avx2.os) (0x3)
Removed property 0xc0000002 to merge /home/j/Dokumente/GitHub/FreetimeOS/lfs/build-glibc/elf/dl-allobjs.os (not found) and /home/j/Dokumente/GitHub/FreetimeOS/lfs/build-glibc/libc_pic.a(strncmp-avx2-rtm.os) (0x3)
Removed property 0xc0000002 to merge /home/j/Dokumente/GitHub/FreetimeOS/lfs/build-glibc/elf/dl-allobjs.os (not found) and /home/j/Dokumente/GitHub/FreetimeOS/lfs/build-glibc/libc_pic.a(strncmp-evex.os) (0x3)
Removed property 0xc0000002 to merge /home/j/Dokumente/GitHub/FreetimeOS/lfs/build-glibc/elf/dl-allobjs.os (not found) and /home/j/Dokumente/GitHub/FreetimeOS/lfs/build-glibc/libc_pic.a(strncmp-sse2.os) (0x3)
Removed property 0xc0000002 to merge /home/j/Dokumente/GitHub/FreetimeOS/lfs/build-glibc/elf/dl-allobjs.os (not found) and /home/j/Dokumente/GitHub/FreetimeOS/lfs/build-glibc/libc_pic.a(strncmp-sse4_2.os) (0x3)
Removed property 0xc0000002 to merge /home/j/Dokumente/GitHub/FreetimeOS/lfs/build-glibc/elf/dl-allobjs.os (not found) and /home/j/Dokumente/GitHub/FreetimeOS/lfs/build-glibc/libc_pic.a(strnlen-avx2.os) (0x3)
Removed property 0xc0000002 to merge /home/j/Dokumente/GitHub/FreetimeOS/lfs/build-glibc/elf/dl-allobjs.os (not found) and /home/j/Dokumente/GitHub/FreetimeOS/lfs/build-glibc/libc_pic.a(strnlen-avx2-rtm.os) (0x3)
Removed property 0xc0000002 to merge /home/j/Dokumente/GitHub/FreetimeOS/lfs/build-glibc/elf/dl-allobjs.os (not found) and /home/j/Dokumente/GitHub/FreetimeOS/lfs/build-glibc/libc_pic.a(strnlen-evex.os) (0x3)
Removed property 0xc0000002 to merge /home/j/Dokumente/GitHub/FreetimeOS/lfs/build-glibc/elf/dl-allobjs.os (not found) and /home/j/Dokumente/GitHub/FreetimeOS/lfs/build-glibc/libc_pic.a(strnlen-sse2.os) (0x3)
Removed property 0xc0000002 to merge /home/j/Dokumente/GitHub/FreetimeOS/lfs/build-glibc/elf/dl-allobjs.os (not found) and /home/j/Dokumente/GitHub/FreetimeOS/lfs/build-glibc/libc_pic.a(varshift.os) (0x3)
Removed property 0xc0000002 to merge /home/j/Dokumente/GitHub/FreetimeOS/lfs/build-glibc/elf/dl-allobjs.os (not found) and /home/j/Dokumente/GitHub/FreetimeOS/lfs/build-glibc/libc_pic.a(strcspn-generic.os) (0x3)
Removed property 0xc0000002 to merge /home/j/Dokumente/GitHub/FreetimeOS/lfs/build-glibc/elf/dl-allobjs.os (not found) and /home/j/Dokumente/GitHub/FreetimeOS/lfs/build-glibc/libc_pic.a(cacheinfo.os) (0x3)
Removed property 0xc0000002 to merge /home/j/Dokumente/GitHub/FreetimeOS/lfs/build-glibc/elf/dl-allobjs.os (not found) and /home/j/Dokumente/GitHub/FreetimeOS/lfs/build-glibc/libc_pic.a(closedir.os) (0x3)
Removed property 0xc0000002 to merge /home/j/Dokumente/GitHub/FreetimeOS/lfs/build-glibc/elf/dl-allobjs.os (not found) and /home/j/Dokumente/GitHub/FreetimeOS/lfs/build-glibc/libc_pic.a(rewinddir.os) (0x3)
Removed property 0xc0000002 to merge /home/j/Dokumente/GitHub/FreetimeOS/lfs/build-glibc/elf/dl-allobjs.os (not found) and /home/j/Dokumente/GitHub/FreetimeOS/lfs/build-glibc/libc_pic.a(readdir64.os) (0x3)
Removed property 0xc0000002 to merge /home/j/Dokumente/GitHub/FreetimeOS/lfs/build-glibc/elf/dl-allobjs.os (not found) and /home/j/Dokumente/GitHub/FreetimeOS/lfs/build-glibc/libc_pic.a(fdopendir.os) (0x3)
Removed property 0xc0000002 to merge /home/j/Dokumente/GitHub/FreetimeOS/lfs/build-glibc/elf/dl-allobjs.os (not found) and /home/j/Dokumente/GitHub/FreetimeOS/lfs/build-glibc/libc_pic.a(_exit.os) (0x3)
Removed property 0xc0000002 to merge /home/j/Dokumente/GitHub/FreetimeOS/lfs/build-glibc/elf/dl-allobjs.os (not found) and /home/j/Dokumente/GitHub/FreetimeOS/lfs/build-glibc/libc_pic.a(getpid.os) (0x3)
Removed property 0xc0000002 to merge /home/j/Dokumente/GitHub/FreetimeOS/lfs/build-glibc/elf/dl-allobjs.os (not found) and /home/j/Dokumente/GitHub/FreetimeOS/lfs/build-glibc/libc_pic.a(uname.os) (0x3)
Removed property 0xc0000002 to merge /home/j/Dokumente/GitHub/FreetimeOS/lfs/build-glibc/elf/dl-allobjs.os (not found) and /home/j/Dokumente/GitHub/FreetimeOS/lfs/build-glibc/libc_pic.a(environ.os) (0x3)
Removed property 0xc0000002 to merge /home/j/Dokumente/GitHub/FreetimeOS/lfs/build-glibc/elf/dl-allobjs.os (not found) and /home/j/Dokumente/GitHub/FreetimeOS/lfs/build-glibc/libc_pic.a(access.os) (0x3)
Removed property 0xc0000002 to merge /home/j/Dokumente/GitHub/FreetimeOS/lfs/build-glibc/elf/dl-allobjs.os (not found) and /home/j/Dokumente/GitHub/FreetimeOS/lfs/build-glibc/libc_pic.a(fstat64.os) (0x3)
Removed property 0xc0000002 to merge /home/j/Dokumente/GitHub/FreetimeOS/lfs/build-glibc/elf/dl-allobjs.os (not found) and /home/j/Dokumente/GitHub/FreetimeOS/lfs/build-glibc/libc_pic.a(fstatat64.os) (0x3)
Removed property 0xc0000002 to merge /home/j/Dokumente/GitHub/FreetimeOS/lfs/build-glibc/elf/dl-allobjs.os (not found) and /home/j/Dokumente/GitHub/FreetimeOS/lfs/build-glibc/libc_pic.a(lseek64.os) (0x3)
Removed property 0xc0000002 to merge /home/j/Dokumente/GitHub/FreetimeOS/lfs/build-glibc/elf/dl-allobjs.os (not found) and /home/j/Dokumente/GitHub/FreetimeOS/lfs/build-glibc/libc_pic.a(lstat64.os) (0x3)
Removed property 0xc0000002 to merge /home/j/Dokumente/GitHub/FreetimeOS/lfs/build-glibc/elf/dl-allobjs.os (not found) and /home/j/Dokumente/GitHub/FreetimeOS/lfs/build-glibc/libc_pic.a(openat64.os) (0x3)
Removed property 0xc0000002 to merge /home/j/Dokumente/GitHub/FreetimeOS/lfs/build-glibc/elf/dl-allobjs.os (not found) and /home/j/Dokumente/GitHub/FreetimeOS/lfs/build-glibc/libc_pic.a(stat64.os) (0x3)
Removed property 0xc0000002 to merge /home/j/Dokumente/GitHub/FreetimeOS/lfs/build-glibc/elf/dl-allobjs.os (not found) and /home/j/Dokumente/GitHub/FreetimeOS/lfs/build-glibc/libc_pic.a(close_nocancel.os) (0x3)
Removed property 0xc0000002 to merge /home/j/Dokumente/GitHub/FreetimeOS/lfs/build-glibc/elf/dl-allobjs.os (not found) and /home/j/Dokumente/GitHub/FreetimeOS/lfs/build-glibc/libc_pic.a(fcntl_nocancel.os) (0x3)
Removed property 0xc0000002 to merge /home/j/Dokumente/GitHub/FreetimeOS/lfs/build-glibc/elf/dl-allobjs.os (not found) and /home/j/Dokumente/GitHub/FreetimeOS/lfs/build-glibc/libc_pic.a(open64_nocancel.os) (0x3)
Removed property 0xc0000002 to merge /home/j/Dokumente/GitHub/FreetimeOS/lfs/build-glibc/elf/dl-allobjs.os (not found) and /home/j/Dokumente/GitHub/FreetimeOS/lfs/build-glibc/libc_pic.a(pread64_nocancel.os) (0x3)
Removed property 0xc0000002 to merge /home/j/Dokumente/GitHub/FreetimeOS/lfs/build-glibc/elf/dl-allobjs.os (not found) and /home/j/Dokumente/GitHub/FreetimeOS/lfs/build-glibc/libc_pic.a(read_nocancel.os) (0x3)
Removed property 0xc0000002 to merge /home/j/Dokumente/GitHub/FreetimeOS/lfs/build-glibc/elf/dl-allobjs.os (not found) and /home/j/Dokumente/GitHub/FreetimeOS/lfs/build-glibc/libc_pic.a(write_nocancel.os) (0x3)
Removed property 0xc0000002 to merge /home/j/Dokumente/GitHub/FreetimeOS/lfs/build-glibc/elf/dl-allobjs.os (not found) and /home/j/Dokumente/GitHub/FreetimeOS/lfs/build-glibc/libc_pic.a(mmap64.os) (0x3)
Removed property 0xc0000002 to merge /home/j/Dokumente/GitHub/FreetimeOS/lfs/build-glibc/elf/dl-allobjs.os (not found) and /home/j/Dokumente/GitHub/FreetimeOS/lfs/build-glibc/libc_pic.a(mprotect.os) (0x3)
Removed property 0xc0000002 to merge /home/j/Dokumente/GitHub/FreetimeOS/lfs/build-glibc/elf/dl-allobjs.os (not found) and /home/j/Dokumente/GitHub/FreetimeOS/lfs/build-glibc/libc_pic.a(munmap.os) (0x3)
Removed property 0xc0000002 to merge /home/j/Dokumente/GitHub/FreetimeOS/lfs/build-glibc/elf/dl-allobjs.os (not found) and /home/j/Dokumente/GitHub/FreetimeOS/lfs/build-glibc/libc_pic.a(single_threaded.os) (0x3)
Removed property 0xc0000002 to merge /home/j/Dokumente/GitHub/FreetimeOS/lfs/build-glibc/elf/dl-allobjs.os (not found) and /home/j/Dokumente/GitHub/FreetimeOS/lfs/build-glibc/libc_pic.a(setvmaname.os) (0x3)
Removed property 0xc0000002 to merge /home/j/Dokumente/GitHub/FreetimeOS/lfs/build-glibc/elf/dl-allobjs.os (not found) and /home/j/Dokumente/GitHub/FreetimeOS/lfs/build-glibc/libc_pic.a(profil.os) (0x3)
Removed property 0xc0000002 to merge /home/j/Dokumente/GitHub/FreetimeOS/lfs/build-glibc/elf/dl-allobjs.os (not found) and /home/j/Dokumente/GitHub/FreetimeOS/lfs/build-glibc/libc_pic.a(prof-freq.os) (0x3)
Removed property 0xc0000002 to merge /home/j/Dokumente/GitHub/FreetimeOS/lfs/build-glibc/elf/dl-allobjs.os (not found) and /home/j/Dokumente/GitHub/FreetimeOS/lfs/build-glibc/libc_pic.a(dl-addr-obj.os) (0x3)
Removed property 0xc0000002 to merge /home/j/Dokumente/GitHub/FreetimeOS/lfs/build-glibc/elf/dl-allobjs.os (not found) and /home/j/Dokumente/GitHub/FreetimeOS/lfs/build-glibc/libc_pic.a(sigaction.os) (0x3)
Removed property 0xc0000002 to merge /home/j/Dokumente/GitHub/FreetimeOS/lfs/build-glibc/elf/dl-allobjs.os (not found) and /home/j/Dokumente/GitHub/FreetimeOS/lfs/build-glibc/libc_pic.a(libc_sigaction.os) (0x3)
Removed property 0xc0000002 to merge /home/j/Dokumente/GitHub/FreetimeOS/lfs/build-glibc/elf/dl-allobjs.os (not found) and /home/j/Dokumente/GitHub/FreetimeOS/lfs/build-glibc/libc_pic.a(errname.os) (0x3)
Removed property 0xc0000002 to merge /home/j/Dokumente/GitHub/FreetimeOS/lfs/build-glibc/elf/dl-allobjs.os (not found) and /home/j/Dokumente/GitHub/FreetimeOS/lfs/build-glibc/libc_pic.a(strchrnul.os) (0x3)
Removed property 0xc0000002 to merge /home/j/Dokumente/GitHub/FreetimeOS/lfs/build-glibc/elf/dl-allobjs.os (not found) and /home/j/Dokumente/GitHub/FreetimeOS/lfs/build-glibc/libc_pic.a(strchrnul-avx2.os) (0x3)
Removed property 0xc0000002 to merge /home/j/Dokumente/GitHub/FreetimeOS/lfs/build-glibc/elf/dl-allobjs.os (not found) and /home/j/Dokumente/GitHub/FreetimeOS/lfs/build-glibc/libc_pic.a(strchrnul-avx2-rtm.os) (0x3)
Removed property 0xc0000002 to merge /home/j/Dokumente/GitHub/FreetimeOS/lfs/build-glibc/elf/dl-allobjs.os (not found) and /home/j/Dokumente/GitHub/FreetimeOS/lfs/build-glibc/libc_pic.a(strchrnul-evex.os) (0x3)
Removed property 0xc0000002 to merge /home/j/Dokumente/GitHub/FreetimeOS/lfs/build-glibc/elf/dl-allobjs.os (not found) and /home/j/Dokumente/GitHub/FreetimeOS/lfs/build-glibc/libc_pic.a(strchrnul-sse2.os) (0x3)
Removed property 0xc0000002 to merge /home/j/Dokumente/GitHub/FreetimeOS/lfs/build-glibc/elf/dl-allobjs.os (not found) and /home/j/Dokumente/GitHub/FreetimeOS/lfs/build-glibc/libc_pic.a(setitimer.os) (0x3)
Removed property 0xc0000002 to merge /home/j/Dokumente/GitHub/FreetimeOS/lfs/build-glibc/elf/dl-allobjs.os (not found) and /home/j/Dokumente/GitHub/FreetimeOS/lfs/build-glibc/libc_pic.a(getdents64.os) (0x3)

Discarded input sections

 .note.gnu.property
                0x0000000000000000       0x20 /home/j/Dokumente/GitHub/FreetimeOS/lfs/build-glibc/elf/dl-allobjs.os
 .note.gnu.property
                0x0000000000000000       0x20 /home/j/Dokumente/GitHub/FreetimeOS/lfs/build-glibc/libc_pic.a(check_fds.os)
 .note.gnu.property
                0x0000000000000000       0x20 /home/j/Dokumente/GitHub/FreetimeOS/lfs/build-glibc/libc_pic.a(errno.os)
 .note.gnu.property
                0x0000000000000000       0x20 /home/j/Dokumente/GitHub/FreetimeOS/lfs/build-glibc/libc_pic.a(setjmp.os)
 .note.gnu.property
                0x0000000000000000       0x20 /home/j/Dokumente/GitHub/FreetimeOS/lfs/build-glibc/libc_pic.a(__longjmp.os)
 .note.gnu.property
                0x0000000000000000       0x20 /home/j/Dokumente/GitHub/FreetimeOS/lfs/build-glibc/libc_pic.a(lowlevellock.os)
 .note.gnu.property
                0x0000000000000000       0x20 /home/j/Dokumente/GitHub/FreetimeOS/lfs/build-glibc/libc_pic.a(scratch_buffer_set_array_size.os)
 .note.gnu.property
                0x0000000000000000       0x20 /home/j/Dokumente/GitHub/FreetimeOS/lfs/build-glibc/libc_pic.a(memchr.os)
 .note.gnu.property
                0x0000000000000000       0x20 /home/j/Dokumente/GitHub/FreetimeOS/lfs/build-glibc/libc_pic.a(memcmp.os)
 .note.gnu.property
                0x0000000000000000       0x20 /home/j/Dokumente/GitHub/FreetimeOS/lfs/build-glibc/libc_pic.a(memcpy.os)
 .note.gnu.property
                0x0000000000000000       0x20 /home/j/Dokumente/GitHub/FreetimeOS/lfs/build-glibc/libc_pic.a(memmove.os)
 .note.gnu.property
                0x0000000000000000       0x20 /home/j/Dokumente/GitHub/FreetimeOS/lfs/build-glibc/libc_pic.a(mempcpy.os)
 .note.gnu.property
                0x0000000000000000       0x20 /home/j/Dokumente/GitHub/FreetimeOS/lfs/build-glibc/libc_pic.a(memset.os)
 .note.gnu.property
                0x0000000000000000       0x20 /home/j/Dokumente/GitHub/FreetimeOS/lfs/build-glibc/libc_pic.a(stpcpy.os)
 .note.gnu.property
                0x0000000000000000       0x20 /home/j/Dokumente/GitHub/FreetimeOS/lfs/build-glibc/libc_pic.a(strchr.os)
 .note.gnu.property
                0x0000000000000000       0x20 /home/j/Dokumente/GitHub/FreetimeOS/lfs/build-glibc/libc_pic.a(strcmp.os)
 .note.gnu.property
                0x0000000000000000       0x20 /home/j/Dokumente/GitHub/FreetimeOS/lfs/build-glibc/libc_pic.a(strcspn.os)
 .note.gnu.property
                0x0000000000000000       0x20 /home/j/Dokumente/GitHub/FreetimeOS/lfs/build-glibc/libc_pic.a(strdup.os)
 .note.gnu.property
                0x0000000000000000       0x20 /home/j/Dokumente/GitHub/FreetimeOS/lfs/build-glibc/libc_pic.a(strerrorname_np.os)
 .note.gnu.property
                0x0000000000000000       0x20 /home/j/Dokumente/GitHub/FreetimeOS/lfs/build-glibc/libc_pic.a(strlen.os)
 .note.gnu.property
                0x0000000000000000       0x20 /home/j/Dokumente/GitHub/FreetimeOS/lfs/build-glibc/libc_pic.a(strncmp.os)
 .note.gnu.property
                0x0000000000000000       0x20 /home/j/Dokumente/GitHub/FreetimeOS/lfs/build-glibc/libc_pic.a(strnlen.os)
 .note.gnu.property
                0x0000000000000000       0x20 /home/j/Dokumente/GitHub/FreetimeOS/lfs/build-glibc/libc_pic.a(memchr-avx2.os)
 .note.gnu.property
                0x0000000000000000       0x20 /home/j/Dokumente/GitHub/FreetimeOS/lfs/build-glibc/libc_pic.a(memchr-avx2-rtm.os)
 .note.gnu.property
                0x0000000000000000       0x20 /home/j/Dokumente/GitHub/FreetimeOS/lfs/build-glibc/libc_pic.a(memchr-evex.os)
 .note.gnu.property
                0x0000000000000000       0x20 /home/j/Dokumente/GitHub/FreetimeOS/lfs/build-glibc/libc_pic.a(memchr-evex-rtm.os)
 .note.gnu.property
                0x0000000000000000       0x20 /home/j/Dokumente/GitHub/FreetimeOS/lfs/build-glibc/libc_pic.a(memchr-sse2.os)
 .note.gnu.property
                0x0000000000000000       0x20 /home/j/Dokumente/GitHub/FreetimeOS/lfs/build-glibc/libc_pic.a(memcmp-avx2-movbe.os)
 .note.gnu.property
                0x0000000000000000       0x20 /home/j/Dokumente/GitHub/FreetimeOS/lfs/build-glibc/libc_pic.a(memcmp-avx2-movbe-rtm.os)
 .note.gnu.property
                0x0000000000000000       0x20 /home/j/Dokumente/GitHub/FreetimeOS/lfs/build-glibc/libc_pic.a(memcmp-evex-movbe.os)
 .note.gnu.property
                0x0000000000000000       0x20 /home/j/Dokumente/GitHub/FreetimeOS/lfs/build-glibc/libc_pic.a(memcmp-sse2.os)
 .note.gnu.property
                0x0000000000000000       0x20 /home/j/Dokumente/GitHub/FreetimeOS/lfs/build-glibc/libc_pic.a(memmove-avx-unaligned-erms.os)
 .note.gnu.property
                0x0000000000000000       0x20 /home/j/Dokumente/GitHub/FreetimeOS/lfs/build-glibc/libc_pic.a(memmove-avx-unaligned-erms-rtm.os)
 .note.gnu.property
                0x0000000000000000       0x20 /home/j/Dokumente/GitHub/FreetimeOS/lfs/build-glibc/libc_pic.a(memmove-avx512-no-vzeroupper.os)
 .note.gnu.property
                0x0000000000000000       0x20 /home/j/Dokumente/GitHub/FreetimeOS/lfs/build-glibc/libc_pic.a(memmove-avx512-unaligned-erms.os)
 .note.gnu.property
                0x0000000000000000       0x20 /home/j/Dokumente/GitHub/FreetimeOS/lfs/build-glibc/libc_pic.a(memmove-erms.os)
 .note.gnu.property
                0x0000000000000000       0x20 /home/j/Dokumente/GitHub/FreetimeOS/lfs/build-glibc/libc_pic.a(memmove-evex-unaligned-erms.os)
 .note.gnu.property
                0x0000000000000000       0x20 /home/j/Dokumente/GitHub/FreetimeOS/lfs/build-glibc/libc_pic.a(memmove-sse2-unaligned-erms.os)
 .note.gnu.property
                0x0000000000000000       0x20 /home/j/Dokumente/GitHub/FreetimeOS/lfs/build-glibc/libc_pic.a(memmove-ssse3.os)
 .note.gnu.property
                0x0000000000000000       0x20 /home/j/Dokumente/GitHub/FreetimeOS/lfs/build-glibc/libc_pic.a(memset-avx2-unaligned-erms.os)
 .note.gnu.property
                0x0000000000000000       0x20 /home/j/Dokumente/GitHub/FreetimeOS/lfs/build-glibc/libc_pic.a(memset-avx2-unaligned-erms-rtm.os)
 .note.gnu.property
                0x0000000000000000       0x20 /home/j/Dokumente/GitHub/FreetimeOS/lfs/build-glibc/libc_pic.a(memset-avx512-no-vzeroupper.os)
 .note.gnu.property
                0x0000000000000000       0x20 /home/j/Dokumente/GitHub/FreetimeOS/lfs/build-glibc/libc_pic.a(memset-avx512-unaligned-erms.os)
 .note.gnu.property
                0x0000000000000000       0x20 /home/j/Dokumente/GitHub/FreetimeOS/lfs/build-glibc/libc_pic.a(memset-erms.os)
 .note.gnu.property
                0x0000000000000000       0x20 /home/j/Dokumente/GitHub/FreetimeOS/lfs/build-glibc/libc_pic.a(memset-evex-unaligned-erms.os)
 .note.gnu.property
                0x0000000000000000       0x20 /home/j/Dokumente/GitHub/FreetimeOS/lfs/build-glibc/libc_pic.a(memset-sse2-unaligned-erms.os)
 .note.gnu.property
                0x0000000000000000       0x20 /home/j/Dokumente/GitHub/FreetimeOS/lfs/build-glibc/libc_pic.a(stpcpy-avx2.os)
 .note.gnu.property
                0x0000000000000000       0x20 /home/j/Dokumente/GitHub/FreetimeOS/lfs/build-glibc/libc_pic.a(stpcpy-avx2-rtm.os)
 .note.gnu.property
                0x0000000000000000       0x20 /home/j/Dokumente/GitHub/FreetimeOS/lfs/build-glibc/libc_pic.a(stpcpy-evex.os)
 .note.gnu.property
                0x0000000000000000       0x20 /home/j/Dokumente/GitHub/FreetimeOS/lfs/build-glibc/libc_pic.a(stpcpy-sse2.os)
 .note.gnu.property
                0x0000000000000000       0x20 /home/j/Dokumente/GitHub/FreetimeOS/lfs/build-glibc/libc_pic.a(stpcpy-sse2-unaligned.os)
 .note.gnu.property
                0x0000000000000000       0x20 /home/j/Dokumente/GitHub/FreetimeOS/lfs/build-glibc/libc_pic.a(strchr-avx2.os)
 .note.gnu.property
                0x0000000000000000       0x20 /home/j/Dokumente/GitHub/FreetimeOS/lfs/build-glibc/libc_pic.a(strchr-avx2-rtm.os)
 .note.gnu.property
                0x0000000000000000       0x20 /home/j/Dokumente/GitHub/FreetimeOS/lfs/build-glibc/libc_pic.a(strchr-evex.os)
 .note.gnu.property
                0x0000000000000000       0x20 /home/j/Dokumente/GitHub/FreetimeOS/lfs/build-glibc/libc_pic.a(strchr-sse2.os)
 .note.gnu.property
                0x0000000000000000       0x20 /home/j/Dokumente/GitHub/FreetimeOS/lfs/build-glibc/libc_pic.a(strchr-sse2-no-bsf.os)
 .note.gnu.property
                0x0000000000000000       0x20 /home/j/Dokumente/GitHub/FreetimeOS/lfs/build-glibc/libc_pic.a(strcmp-avx2.os)
 .note.gnu.property
                0x0000000000000000       0x20 /home/j/Dokumente/GitHub/FreetimeOS/lfs/build-glibc/libc_pic.a(strcmp-avx2-rtm.os)
 .note.gnu.property
                0x0000000000000000       0x20 /home/j/Dokumente/GitHub/FreetimeOS/lfs/build-glibc/libc_pic.a(strcmp-evex.os)
 .note.gnu.property
                0x0000000000000000       0x20 /home/j/Dokumente/GitHub/FreetimeOS/lfs/build-glibc/libc_pic.a(strcmp-sse2.os)
 .note.gnu.property
                0x0000000000000000       0x20 /home/j/Dokumente/GitHub/FreetimeOS/lfs/build-glibc/libc_pic.a(strcmp-sse2-unaligned.os)
 .note.gnu.property
                0x0000000000000000       0x20 /home/j/Dokumente/GitHub/FreetimeOS/lfs/build-glibc/libc_pic.a(strcmp-sse4_2.os)
 .note.gnu.property
                0x0000000000000000       0x20 /home/j/Dokumente/GitHub/FreetimeOS/lfs/build-glibc/libc_pic.a(strcspn-sse4.os)
 .note.gnu.property
                0x0000000000000000       0x20 /home/j/Dokumente/GitHub/FreetimeOS/lfs/build-glibc/libc_pic.a(strlen-avx2.os)
 .note.gnu.property
                0x0000000000000000       0x20 /home/j/Dokumente/GitHub/FreetimeOS/lfs/build-glibc/libc_pic.a(strlen-avx2-rtm.os)
 .note.gnu.property
                0x0000000000000000       0x20 /home/j/Dokumente/GitHub/FreetimeOS/lfs/build-glibc/libc_pic.a(strlen-evex.os)
 .note.gnu.property
                0x0000000000000000       0x20 /home/j/Dokumente/GitHub/FreetimeOS/lfs/build-glibc/libc_pic.a(strlen-sse2.os)
 .note.gnu.property
                0x0000000000000000       0x20 /home/j/Dokumente/GitHub/FreetimeOS/lfs/build-glibc/libc_pic.a(strncmp-avx2.os)
 .note.gnu.property
                0x0000000000000000       0x20 /home/j/Dokumente/GitHub/FreetimeOS/lfs/build-glibc/libc_pic.a(strncmp-avx2-rtm.os)
 .note.gnu.property
                0x0000000000000000       0x20 /home/j/Dokumente/GitHub/FreetimeOS/lfs/build-glibc/libc_pic.a(strncmp-evex.os)
 .note.gnu.property
                0x0000000000000000       0x20 /home/j/Dokumente/GitHub/FreetimeOS/lfs/build-glibc/libc_pic.a(strncmp-sse2.os)
 .note.gnu.property
                0x0000000000000000       0x20 /home/j/Dokumente/GitHub/FreetimeOS/lfs/build-glibc/libc_pic.a(strncmp-sse4_2.os)
 .note.gnu.property
                0x0000000000000000       0x20 /home/j/Dokumente/GitHub/FreetimeOS/lfs/build-glibc/libc_pic.a(strnlen-avx2.os)
 .note.gnu.property
                0x0000000000000000       0x20 /home/j/Dokumente/GitHub/FreetimeOS/lfs/build-glibc/libc_pic.a(strnlen-avx2-rtm.os)
 .note.gnu.property
                0x0000000000000000       0x20 /home/j/Dokumente/GitHub/FreetimeOS/lfs/build-glibc/libc_pic.a(strnlen-evex.os)
 .note.gnu.property
                0x0000000000000000       0x20 /home/j/Dokumente/GitHub/FreetimeOS/lfs/build-glibc/libc_pic.a(strnlen-sse2.os)
 .note.gnu.property
                0x0000000000000000       0x20 /home/j/Dokumente/GitHub/FreetimeOS/lfs/build-glibc/libc_pic.a(varshift.os)
 .note.gnu.property
                0x0000000000000000       0x20 /home/j/Dokumente/GitHub/FreetimeOS/lfs/build-glibc/libc_pic.a(strcspn-generic.os)
 .note.gnu.property
                0x0000000000000000       0x20 /home/j/Dokumente/GitHub/FreetimeOS/lfs/build-glibc/libc_pic.a(cacheinfo.os)
 .note.gnu.property
                0x0000000000000000       0x20 /home/j/Dokumente/GitHub/FreetimeOS/lfs/build-glibc/libc_pic.a(closedir.os)
 .note.gnu.property
                0x0000000000000000       0x20 /home/j/Dokumente/GitHub/FreetimeOS/lfs/build-glibc/libc_pic.a(rewinddir.os)
 .note.gnu.property
                0x0000000000000000       0x20 /home/j/Dokumente/GitHub/FreetimeOS/lfs/build-glibc/libc_pic.a(readdir64.os)
 .note.gnu.property
                0x0000000000000000       0x20 /home/j/Dokumente/GitHub/FreetimeOS/lfs/build-glibc/libc_pic.a(fdopendir.os)
 .note.gnu.property
                0x0000000000000000       0x20 /home/j/Dokumente/GitHub/FreetimeOS/lfs/build-glibc/libc_pic.a(_exit.os)
 .note.gnu.property
                0x0000000000000000       0x20 /home/j/Dokumente/GitHub/FreetimeOS/lfs/build-glibc/libc_pic.a(getpid.os)
 .note.gnu.property
                0x0000000000000000       0x20 /home/j/Dokumente/GitHub/FreetimeOS/lfs/build-glibc/libc_pic.a(uname.os)
 .note.gnu.property
                0x0000000000000000       0x20 /home/j/Dokumente/GitHub/FreetimeOS/lfs/build-glibc/libc_pic.a(environ.os)
 .note.gnu.property
                0x0000000000000000       0x20 /home/j/Dokumente/GitHub/FreetimeOS/lfs/build-glibc/libc_pic.a(access.os)
 .note.gnu.property
                0x0000000000000000       0x20 /home/j/Dokumente/GitHub/FreetimeOS/lfs/build-glibc/libc_pic.a(fstat64.os)
 .note.gnu.property
                0x0000000000000000       0x20 /home/j/Dokumente/GitHub/FreetimeOS/lfs/build-glibc/libc_pic.a(fstatat64.os)
 .note.gnu.property
                0x0000000000000000       0x20 /home/j/Dokumente/GitHub/FreetimeOS/lfs/build-glibc/libc_pic.a(lseek64.os)
 .note.gnu.property
                0x0000000000000000       0x20 /home/j/Dokumente/GitHub/FreetimeOS/lfs/build-glibc/libc_pic.a(lstat64.os)
 .note.gnu.property
                0x0000000000000000       0x20 /home/j/Dokumente/GitHub/FreetimeOS/lfs/build-glibc/libc_pic.a(openat64.os)
 .note.gnu.property
                0x0000000000000000       0x20 /home/j/Dokumente/GitHub/FreetimeOS/lfs/build-glibc/libc_pic.a(stat64.os)
 .note.gnu.property
                0x0000000000000000       0x20 /home/j/Dokumente/GitHub/FreetimeOS/lfs/build-glibc/libc_pic.a(close_nocancel.os)
 .note.gnu.property
                0x0000000000000000       0x20 /home/j/Dokumente/GitHub/FreetimeOS/lfs/build-glibc/libc_pic.a(fcntl_nocancel.os)
 .note.gnu.property
                0x0000000000000000       0x20 /home/j/Dokumente/GitHub/FreetimeOS/lfs/build-glibc/libc_pic.a(open64_nocancel.os)
 .note.gnu.property
                0x0000000000000000       0x20 /home/j/Dokumente/GitHub/FreetimeOS/lfs/build-glibc/libc_pic.a(pread64_nocancel.os)
 .note.gnu.property
                0x0000000000000000       0x20 /home/j/Dokumente/GitHub/FreetimeOS/lfs/build-glibc/libc_pic.a(read_nocancel.os)
 .note.gnu.property
                0x0000000000000000       0x20 /home/j/Dokumente/GitHub/FreetimeOS/lfs/build-glibc/libc_pic.a(write_nocancel.os)
 .note.gnu.property
                0x0000000000000000       0x20 /home/j/Dokumente/GitHub/FreetimeOS/lfs/build-glibc/libc_pic.a(mmap64.os)
 .note.gnu.property
                0x0000000000000000       0x20 /home/j/Dokumente/GitHub/FreetimeOS/lfs/build-glibc/libc_pic.a(mprotect.os)
 .note.gnu.property
                0x0000000000000000       0x20 /home/j/Dokumente/GitHub/FreetimeOS/lfs/build-glibc/libc_pic.a(munmap.os)
 .note.gnu.property
                0x0000000000000000       0x20 /home/j/Dokumente/GitHub/FreetimeOS/lfs/build-glibc/libc_pic.a(single_threaded.os)
 .note.gnu.property
                0x0000000000000000       0x20 /home/j/Dokumente/GitHub/FreetimeOS/lfs/build-glibc/libc_pic.a(setvmaname.os)
 .note.gnu.property
                0x0000000000000000       0x20 /home/j/Dokumente/GitHub/FreetimeOS/lfs/build-glibc/libc_pic.a(profil.os)
 .note.gnu.property
                0x0000000000000000       0x20 /home/j/Dokumente/GitHub/FreetimeOS/lfs/build-glibc/libc_pic.a(prof-freq.os)
 .note.gnu.property
                0x0000000000000000       0x20 /home/j/Dokumente/GitHub/FreetimeOS/lfs/build-glibc/libc_pic.a(dl-addr-obj.os)
 .note.gnu.property
                0x0000000000000000       0x20 /home/j/Dokumente/GitHub/FreetimeOS/lfs/build-glibc/libc_pic.a(sigaction.os)
 .note.gnu.property
                0x0000000000000000       0x20 /home/j/Dokumente/GitHub/FreetimeOS/lfs/build-glibc/libc_pic.a(libc_sigaction.os)
 .note.gnu.property
                0x0000000000000000       0x20 /home/j/Dokumente/GitHub/FreetimeOS/lfs/build-glibc/libc_pic.a(errname.os)
 .note.gnu.property
                0x0000000000000000       0x20 /home/j/Dokumente/GitHub/FreetimeOS/lfs/build-glibc/libc_pic.a(strchrnul.os)
 .note.gnu.property
                0x0000000000000000       0x20 /home/j/Dokumente/GitHub/FreetimeOS/lfs/build-glibc/libc_pic.a(strchrnul-avx2.os)
 .note.gnu.property
                0x0000000000000000       0x20 /home/j/Dokumente/GitHub/FreetimeOS/lfs/build-glibc/libc_pic.a(strchrnul-avx2-rtm.os)
 .note.gnu.property
                0x0000000000000000       0x20 /home/j/Dokumente/GitHub/FreetimeOS/lfs/build-glibc/libc_pic.a(strchrnul-evex.os)
 .note.gnu.property
                0x0000000000000000       0x20 /home/j/Dokumente/GitHub/FreetimeOS/lfs/build-glibc/libc_pic.a(strchrnul-sse2.os)
 .note.gnu.property
                0x0000000000000000       0x20 /home/j/Dokumente/GitHub/FreetimeOS/lfs/build-glibc/libc_pic.a(setitimer.os)
 .note.gnu.property
                0x0000000000000000       0x20 /home/j/Dokumente/GitHub/FreetimeOS/lfs/build-glibc/libc_pic.a(getdents64.os)

Speicherkonfiguration

Name             Ursprung           Lnge             Attribute
*default*        0x0000000000000000 0xffffffffffffffff

Linker script and memory map

LOAD /home/j/Dokumente/GitHub/FreetimeOS/lfs/build-glibc/elf/librtld.mapT.o
START GROUP
LOAD /home/j/Dokumente/GitHub/FreetimeOS/lfs/build-glibc/elf/dl-allobjs.os
LOAD /home/j/Dokumente/GitHub/FreetimeOS/lfs/build-glibc/libc_pic.a
LOAD /usr/lib/gcc/x86_64-linux-gnu/13/libgcc.a
END GROUP

.interp
 *(.interp)

.note.gnu.build-id
 *(.note.gnu.build-id)

.hash
 *(.hash)

.gnu.hash
 *(.gnu.hash)

.dynsym
 *(.dynsym)

.dynstr
 *(.dynstr)

.gnu.version
 *(.gnu.version)

.gnu.version_d
 *(.gnu.version_d)

.gnu.version_r
 *(.gnu.version_r)

.rela.init
 *(.rela.init)

.rela.text
 *(.rela.text)

.rela.fini
 *(.rela.fini)

.rela.rodata
 *(.rela.rodata)

.rela.data.rel.ro
 *(.rela.data.rel.ro)

.rela.data
 *(.rela.data)

.rela.tdata
 *(.rela.tdata)

.rela.tbss
 *(.rela.tbss)

.rela.ctors
 *(.rela.ctors)

.rela.dtors
 *(.rela.dtors)

.rela.got
 *(.rela.got)

.rela.bss
 *(.rela.bss)

.rela.ldata
 *(.rela.ldata)

.rela.lbss
 *(.rela.lbss)

.rela.lrodata
 *(.rela.lrodata)

.rela.ifunc
 *(.rela.ifunc)

.rela.plt
 *(.rela.plt)

.relr.dyn
 *(.relr.dyn)

.init
 *(SORT_NONE(.init))

.plt
 *(.plt)

.plt.got
 *(.plt.got)

.plt.sec
 *(.plt.sec)

.text           0x0000000000000000    0x271b4
 *(.text .stub)
 .text          0x0000000000000000        0x0 /home/j/Dokumente/GitHub/FreetimeOS/lfs/build-glibc/elf/librtld.mapT.o
                0x0000000000000000                __stack_chk_fail_local
                0x0000000000000000                malloc
                0x0000000000000000                __libc_assert_fail
                0x0000000000000000                __stack_chk_fail
                0x0000000000000000                calloc
                0x0000000000000000                __GI___pthread_enable_asynccancel
                0x0000000000000000                realloc
                0x0000000000000000                __GI___pthread_disable_asynccancel
                0x0000000000000000                __pthread_enable_asynccancel
                0x0000000000000000                __pthread_disable_asynccancel
                0x0000000000000000                free
 .text          0x0000000000000000    0x20554 /home/j/Dokumente/GitHub/FreetimeOS/lfs/build-glibc/elf/dl-allobjs.os
                0x0000000000000000                _dl_call_libc_early_init
                0x0000000000000090                _dl_call_fini
                0x00000000000001e0                _dl_signal_exception
                0x00000000000001e0                __GI__dl_signal_exception
                0x0000000000000240                __GI__dl_signal_error
                0x0000000000000240                _dl_signal_error
                0x00000000000002b0                _dl_signal_cexception
                0x0000000000000340                _dl_signal_cerror
                0x00000000000003c0                _dl_receive_error
                0x0000000000000460                _dl_catch_exception
                0x0000000000000460                __GI__dl_catch_exception
                0x00000000000005e0                _dl_catch_error
                0x0000000000000740                _dl_close_worker
                0x00000000000015f0                _dl_close
                0x0000000000001660                _dl_debug_state
                0x0000000000001660                __GI__dl_debug_state
                0x0000000000001670                _dl_debug_update
                0x00000000000016c0                _dl_debug_initialize
                0x0000000000001870                _dl_map_object_deps
                0x0000000000002890                _dl_error_free
                0x00000000000028c0                _dl_exception_create
                0x00000000000028c0                __GI__dl_exception_create
                0x0000000000002990                __GI__dl_exception_create_format
                0x0000000000002990                _dl_exception_create_format
                0x0000000000002e00                _dl_exception_free
                0x0000000000002e00                __GI__dl_exception_free
                0x0000000000002e30                _dl_make_stacks_executable
                0x0000000000002fa0                __GI___nptl_change_stack_perm
                0x0000000000002fa0                __nptl_change_stack_perm
                0x00000000000031e0                __GI__dl_find_object
                0x00000000000031e0                _dl_find_object
                0x0000000000003520                _dlfo_sort_mappings
                0x00000000000035d0                _dl_find_object_init
                0x0000000000003780                _dl_find_object_update
                0x0000000000003c80                _dl_find_object_dlclose
                0x0000000000003d50                _dl_find_object_freeres
                0x0000000000003dc0                _dl_fini
                0x00000000000041d0                _dl_init
                0x0000000000005250                _dl_dst_count
                0x0000000000005300                _dl_dst_substitute
                0x0000000000005a80                _dl_init_paths
                0x0000000000005e90                _dl_process_pt_gnu_property
                0x0000000000007930                _dl_map_object
                0x0000000000008420                _dl_rtld_di_serinfo
                0x0000000000009410                _dl_lookup_symbol_x
                0x0000000000009fb0                _dl_lookup_direct
                0x000000000000a150                __minimal_malloc
                0x000000000000a280                __minimal_calloc
                0x000000000000a2c0                __minimal_free
                0x000000000000a300                __minimal_realloc
                0x000000000000a390                _dl_sysdep_read_whole_file
                0x000000000000a420                _dl_name_match_p
                0x000000000000a490                _dl_higher_prime_number
                0x000000000000a4e0                _dl_strtoul
                0x000000000000a690                _dl_add_to_namespace_list
                0x000000000000a730                _dl_new_object
                0x000000000000af50                __GI__dl_find_dso_for_object
                0x000000000000af50                _dl_find_dso_for_object
                0x000000000000b020                _dl_open
                0x000000000000b320                _dl_show_scope
                0x000000000000bf20                _dl_get_origin
                0x000000000000c740                _dl_debug_printf
                0x000000000000c7f0                _dl_debug_printf_c
                0x000000000000c8a0                _dl_dprintf
                0x000000000000c940                _dl_printf
                0x000000000000c9f0                _dl_error_printf
                0x000000000000caa0                _dl_fatal_printf
                0x000000000000caa0                __GI__dl_fatal_printf
                0x000000000000cb50                _dl_try_allocate_static_tls
                0x000000000000cc70                _dl_allocate_static_tls
                0x000000000000ccb0                _dl_protect_relro
                0x000000000000cd20                _dl_reloc_bad_type
                0x000000000000ce00                _dl_relocate_object
                0x000000000000f720                _dl_fixup
                0x000000000000f9e0                _dl_profile_fixup
                0x000000000000fd30                _dl_scope_free
                0x000000000000fe00                _dl_setup_hash
                0x000000000000ffa0                _dl_sort_maps_init
                0x000000000000ffd0                _dl_sort_maps
                0x00000000000104f0                __thread_gscope_wait
                0x0000000000010980                _dl_tls_static_surplus_init
                0x0000000000010a20                _dl_assign_tls_modid
                0x0000000000010b40                _dl_count_modids
                0x0000000000010bb0                _dl_determine_tlsoffset
                0x0000000000010d70                _dl_get_tls_static_info
                0x0000000000010d90                _dl_allocate_tls_storage
                0x0000000000010e60                __GI__dl_allocate_tls_init
                0x0000000000010e60                _dl_allocate_tls_init
                0x0000000000011100                __GI__dl_allocate_tls
                0x0000000000011100                _dl_allocate_tls
                0x0000000000011140                _dl_deallocate_tls
                0x0000000000011140                __GI__dl_deallocate_tls
                0x00000000000111d0                _dl_update_slotinfo
                0x00000000000113f0                __GI___tls_get_addr
                0x00000000000113f0                ___tls_get_addr
                0x0000000000011440                _dl_tls_get_addr_soft
                0x00000000000114c0                _dl_add_to_slotinfo
                0x00000000000115d0                _dl_init_static_tls
                0x0000000000011700                __tls_get_addr_slow
                0x0000000000011740                __tls_pre_init_tp
                0x00000000000117a0                __tls_init_tp
                0x00000000000118e0                _dl_runtime_profile_sse
                0x0000000000011a70                _dl_runtime_resolve_fxsave
                0x0000000000011af0                _dl_runtime_resolve_xsave
                0x0000000000011bc0                _dl_runtime_resolve_xsavec
                0x0000000000012040                __tunable_is_initialized
                0x0000000000012040                __GI___tunable_is_initialized
                0x0000000000012060                __GI___tunable_set_val
                0x0000000000012080                __GI___tunables_init
                0x0000000000012200                __GI___tunables_print
                0x0000000000012320                __tunable_get_default
                0x0000000000012320                __GI___tunable_get_default
                0x0000000000012370                __tunable_get_val
                0x0000000000012370                __GI___tunable_get_val
                0x00000000000123f0                _dl_check_map_versions
                0x0000000000012cb0                _dl_check_all_versions
                0x0000000000012d20                _dl_write
                0x0000000000012d30                _dl_cache_libcmp
                0x0000000000013520                _dl_load_cache_lookup
                0x00000000000138b0                _dl_unload_cache
                0x0000000000013900                _dl_make_tlsdesc_dynamic
                0x0000000000013ba0                _dl_unmap
                0x0000000000013c20                _dl_tlsdesc_return
                0x0000000000013c30                _dl_tlsdesc_undefweak
                0x0000000000013c50                _dl_tlsdesc_dynamic
                0x0000000000013cf0                __tls_get_addr
                0x0000000000013f70                _dl_cet_open_check
                0x0000000000014010                _dl_cet_setup_features
                0x0000000000014080                _dl_cet_check
                0x00000000000167e0                __x86_cpu_features
                0x0000000000016810                _dl_x86_init_cpu_features
                0x0000000000016830                _dl_x86_get_cpu_features
                0x0000000000016840                _dl_audit_activity_map
                0x00000000000168d0                _dl_audit_activity_nsid
                0x0000000000016910                _dl_audit_objsearch
                0x00000000000169c0                _dl_audit_objopen
                0x0000000000016a80                _dl_audit_objclose
                0x0000000000016b20                _dl_audit_preinit
                0x0000000000016ba0                _dl_audit_symbind_alt
                0x0000000000016ba0                __GI__dl_audit_symbind_alt
                0x0000000000016d50                _dl_audit_symbind
                0x0000000000017000                _dl_audit_pltenter
                0x0000000000017210                _dl_audit_pltexit
                0x00000000000173f0                _dl_diagnostics_print_string
                0x0000000000017470                _dl_diagnostics_print_labeled_string
                0x00000000000174c0                _dl_diagnostics_print_labeled_value
                0x00000000000174e0                _dl_print_diagnostics
                0x0000000000017920                _dl_diagnostics_cpu
                0x0000000000018060                _dl_diagnostics_kernel
                0x0000000000018120                _dl_next_ld_env_entry
                0x0000000000018170                unsetenv
                0x00000000000182a0                _dl_important_hwcaps
                0x0000000000018630                _dl_hwcaps_subdirs_active
                0x00000000000186f0                _dl_hwcaps_split
                0x0000000000018790                _dl_hwcaps_contains
                0x0000000000018850                _dl_hwcaps_split_masked
                0x0000000000018890                __rtld_libc_freeres
                0x00000000000188a0                __rtld_malloc_init_stubs
                0x00000000000188e0                __sigjmp_save
                0x00000000000188f0                __strerror_r
                0x00000000000189e0                __GI___libc_fatal
                0x00000000000189e0                __libc_fatal
                0x0000000000018a00                __GI___chk_fail
                0x0000000000018a00                __chk_fail
                0x0000000000018a20                __GI___assert_fail
                0x0000000000018a20                __assert_fail
                0x0000000000018a60                __rtld_malloc_is_complete
                0x0000000000018b70                __rtld_malloc_init_real
                0x0000000000018c60                __GI___assert_perror_fail
                0x0000000000018c60                __assert_perror_fail
                0x0000000000018cc0                _itoa
                0x0000000000018d20                __strsep
                0x0000000000018d20                strsep
                0x0000000000018d20                __strsep_g
                0x0000000000018da0                __rtld_mutex_init
                0x0000000000018ea0                _dl_start_profile
                0x0000000000019650                __GI__dl_mcount
                0x0000000000019650                _dl_mcount
                0x00000000000199e0                _dl_tunable_set_hwcaps
                0x000000000001a3e0                _dl_tunable_set_x86_ibt
                0x000000000001a470                _dl_tunable_set_x86_shstk
                0x000000000001a500                _dl_sysdep_start
                0x000000000001a5c0                _dl_sysdep_start_cleanup
                0x000000000001a5d0                _dl_show_auxv
                0x000000000001a820                _dl_usage
                0x000000000001a870                _dl_version
                0x000000000001a890                _dl_help
                0x000000000001ab60                _start
                0x000000000001ab68                _dl_start_user
                0x000000000001bf30                handle_preload_list
                0x000000000001fce0                __brk
                0x000000000001fce0                brk
                0x000000000001fd10                __getcwd
                0x000000000001fd10                getcwd
                0x0000000000020310                openat64
                0x0000000000020370                __alloc_dir
                0x0000000000020440                __opendir
                0x0000000000020440                opendir
                0x00000000000204d0                sbrk
                0x00000000000204d0                __sbrk
 *fill*         0x0000000000020554        0xc 
 .text          0x0000000000020560       0xe6 /home/j/Dokumente/GitHub/FreetimeOS/lfs/build-glibc/libc_pic.a(check_fds.os)
                0x0000000000020610                __libc_check_standard_fds
 .text          0x0000000000020646        0x0 /home/j/Dokumente/GitHub/FreetimeOS/lfs/build-glibc/libc_pic.a(errno.os)
 *fill*         0x0000000000020646        0xa 
 .text          0x0000000000020650       0x72 /home/j/Dokumente/GitHub/FreetimeOS/lfs/build-glibc/libc_pic.a(setjmp.os)
                0x0000000000020650                __sigsetjmp
                0x0000000000020650                __GI___sigsetjmp
 *fill*         0x00000000000206c2        0xe 
 .text          0x00000000000206d0       0xc0 /home/j/Dokumente/GitHub/FreetimeOS/lfs/build-glibc/libc_pic.a(__longjmp.os)
                0x00000000000206d0                __longjmp
 .text          0x0000000000020790       0xf8 /home/j/Dokumente/GitHub/FreetimeOS/lfs/build-glibc/libc_pic.a(lowlevellock.os)
                0x0000000000020790                __GI___lll_lock_wait_private
                0x0000000000020790                __lll_lock_wait_private
                0x00000000000207f0                __lll_lock_wait
                0x00000000000207f0                __GI___lll_lock_wait
                0x0000000000020850                __lll_lock_wake_private
                0x0000000000020850                __GI___lll_lock_wake_private
                0x0000000000020870                __lll_lock_wake
                0x0000000000020870                __GI___lll_lock_wake
 *fill*         0x0000000000020888        0x8 
 .text          0x0000000000020890       0xa5 /home/j/Dokumente/GitHub/FreetimeOS/lfs/build-glibc/libc_pic.a(scratch_buffer_set_array_size.os)
                0x0000000000020890                __libc_scratch_buffer_set_array_size
                0x0000000000020890                __GI___libc_scratch_buffer_set_array_size
 *fill*         0x0000000000020935        0xb 
 .text          0x0000000000020940       0x7d /home/j/Dokumente/GitHub/FreetimeOS/lfs/build-glibc/libc_pic.a(memchr.os)
                0x0000000000020940                __GI_memchr
                0x0000000000020940                memchr
                0x0000000000020940                __memchr
 *fill*         0x00000000000209bd        0x3 
 .text          0x00000000000209c0       0x71 /home/j/Dokumente/GitHub/FreetimeOS/lfs/build-glibc/libc_pic.a(memcmp.os)
                0x00000000000209c0                bcmp
                0x00000000000209c0                __GI_memcmp
                0x00000000000209c0                memcmp
 *fill*         0x0000000000020a31        0xf 
 .text          0x0000000000020a40      0x111 /home/j/Dokumente/GitHub/FreetimeOS/lfs/build-glibc/libc_pic.a(memcpy.os)
                0x0000000000020a40                __GI_memcpy
                0x0000000000020a40                __new_memcpy
                0x0000000000020a40                memcpy@@GLIBC_2.14
 *fill*         0x0000000000020b51        0xf 
 .text          0x0000000000020b60      0x111 /home/j/Dokumente/GitHub/FreetimeOS/lfs/build-glibc/libc_pic.a(memmove.os)
                0x0000000000020b60                memmove
                0x0000000000020b60                __GI_memmove
                0x0000000000020b60                __libc_memmove
 *fill*         0x0000000000020c71        0xf 
 .text          0x0000000000020c80      0x111 /home/j/Dokumente/GitHub/FreetimeOS/lfs/build-glibc/libc_pic.a(mempcpy.os)
                0x0000000000020c80                mempcpy
                0x0000000000020c80                __GI_mempcpy
                0x0000000000020c80                __mempcpy
                0x0000000000020c80                __GI___mempcpy
 *fill*         0x0000000000020d91        0xf 
 .text          0x0000000000020da0       0xed /home/j/Dokumente/GitHub/FreetimeOS/lfs/build-glibc/libc_pic.a(memset.os)
                0x0000000000020da0                __GI_memset
                0x0000000000020da0                memset
 *fill*         0x0000000000020e8d        0x3 
 .text          0x0000000000020e90       0x70 /home/j/Dokumente/GitHub/FreetimeOS/lfs/build-glibc/libc_pic.a(stpcpy.os)
                0x0000000000020e90                stpcpy
                0x0000000000020e90                __GI_stpcpy
                0x0000000000020e90                __stpcpy
                0x0000000000020e90                __GI___stpcpy
 .text          0x0000000000020f00       0x78 /home/j/Dokumente/GitHub/FreetimeOS/lfs/build-glibc/libc_pic.a(strchr.os)
                0x0000000000020f00                __GI_strchr
                0x0000000000020f00                index
                0x0000000000020f00                strchr
 *fill*         0x0000000000020f78        0x8 
 .text          0x0000000000020f80       0x88 /home/j/Dokumente/GitHub/FreetimeOS/lfs/build-glibc/libc_pic.a(strcmp.os)
                0x0000000000020f80                __GI_strcmp
                0x0000000000020f80                strcmp
 *fill*         0x0000000000021008        0x8 
 .text          0x0000000000021010       0x25 /home/j/Dokumente/GitHub/FreetimeOS/lfs/build-glibc/libc_pic.a(strcspn.os)
                0x0000000000021010                strcspn
                0x0000000000021010                __GI_strcspn
 *fill*         0x0000000000021035        0xb 
 .text          0x0000000000021040       0x3d /home/j/Dokumente/GitHub/FreetimeOS/lfs/build-glibc/libc_pic.a(strdup.os)
                0x0000000000021040                __GI___strdup
                0x0000000000021040                __strdup
                0x0000000000021040                strdup
 *fill*         0x000000000002107d        0x3 
 .text          0x0000000000021080        0x9 /home/j/Dokumente/GitHub/FreetimeOS/lfs/build-glibc/libc_pic.a(strerrorname_np.os)
                0x0000000000021080                strerrorname_np
 *fill*         0x0000000000021089        0x7 
 .text          0x0000000000021090       0x81 /home/j/Dokumente/GitHub/FreetimeOS/lfs/build-glibc/libc_pic.a(strlen.os)
                0x0000000000021090                strlen
                0x0000000000021090                __GI_strlen
 *fill*         0x0000000000021111        0xf 
 .text          0x0000000000021120       0x91 /home/j/Dokumente/GitHub/FreetimeOS/lfs/build-glibc/libc_pic.a(strncmp.os)
                0x0000000000021120                __GI_strncmp
                0x0000000000021120                strncmp
 *fill*         0x00000000000211b1        0xf 
 .text          0x00000000000211c0       0x81 /home/j/Dokumente/GitHub/FreetimeOS/lfs/build-glibc/libc_pic.a(strnlen.os)
                0x00000000000211c0                __strnlen
                0x00000000000211c0                strnlen
                0x00000000000211c0                __GI___strnlen
                0x00000000000211c0                __GI_strnlen
 .text          0x0000000000021241        0x0 /home/j/Dokumente/GitHub/FreetimeOS/lfs/build-glibc/libc_pic.a(memchr-avx2.os)
 .text          0x0000000000021241        0x0 /home/j/Dokumente/GitHub/FreetimeOS/lfs/build-glibc/libc_pic.a(memchr-avx2-rtm.os)
 .text          0x0000000000021241        0x0 /home/j/Dokumente/GitHub/FreetimeOS/lfs/build-glibc/libc_pic.a(memchr-evex.os)
 .text          0x0000000000021241        0x0 /home/j/Dokumente/GitHub/FreetimeOS/lfs/build-glibc/libc_pic.a(memchr-evex-rtm.os)
 *fill*         0x0000000000021241        0xf 
 .text          0x0000000000021250      0x323 /home/j/Dokumente/GitHub/FreetimeOS/lfs/build-glibc/libc_pic.a(memchr-sse2.os)
                0x0000000000021250                __memchr_sse2
 .text          0x0000000000021573        0x0 /home/j/Dokumente/GitHub/FreetimeOS/lfs/build-glibc/libc_pic.a(memcmp-avx2-movbe.os)
 .text          0x0000000000021573        0x0 /home/j/Dokumente/GitHub/FreetimeOS/lfs/build-glibc/libc_pic.a(memcmp-avx2-movbe-rtm.os)
 .text          0x0000000000021573        0x0 /home/j/Dokumente/GitHub/FreetimeOS/lfs/build-glibc/libc_pic.a(memcmp-evex-movbe.os)
 *fill*         0x0000000000021573        0xd 
 .text          0x0000000000021580      0x2d0 /home/j/Dokumente/GitHub/FreetimeOS/lfs/build-glibc/libc_pic.a(memcmp-sse2.os)
                0x0000000000021580                __memcmp_sse2
 .text          0x0000000000021850        0x0 /home/j/Dokumente/GitHub/FreetimeOS/lfs/build-glibc/libc_pic.a(memmove-avx-unaligned-erms.os)
 .text          0x0000000000021850        0x0 /home/j/Dokumente/GitHub/FreetimeOS/lfs/build-glibc/libc_pic.a(memmove-avx-unaligned-erms-rtm.os)
 .text          0x0000000000021850        0x0 /home/j/Dokumente/GitHub/FreetimeOS/lfs/build-glibc/libc_pic.a(memmove-avx512-no-vzeroupper.os)
 .text          0x0000000000021850        0x0 /home/j/Dokumente/GitHub/FreetimeOS/lfs/build-glibc/libc_pic.a(memmove-avx512-unaligned-erms.os)
 .text          0x0000000000021850       0x71 /home/j/Dokumente/GitHub/FreetimeOS/lfs/build-glibc/libc_pic.a(memmove-erms.os)
                0x0000000000021850                __mempcpy_chk_erms
                0x0000000000021860                __mempcpy_erms
                0x0000000000021880                __memcpy_chk_erms
                0x0000000000021880                __memmove_chk_erms
                0x0000000000021890                __memmove_erms
                0x0000000000021890                __memcpy_erms
 .text          0x00000000000218c1        0x0 /home/j/Dokumente/GitHub/FreetimeOS/lfs/build-glibc/libc_pic.a(memmove-evex-unaligned-erms.os)
 *fill*         0x00000000000218c1       0x3f 
 .text          0x0000000000021900      0x612 /home/j/Dokumente/GitHub/FreetimeOS/lfs/build-glibc/libc_pic.a(memmove-sse2-unaligned-erms.os)
                0x0000000000021900                __mempcpy_chk_sse2_unaligned
                0x0000000000021910                __mempcpy_sse2_unaligned
                0x0000000000021920                __memcpy_chk_sse2_unaligned
                0x0000000000021920                __memmove_chk_sse2_unaligned
                0x0000000000021930                __memmove_sse2_unaligned
                0x0000000000021930                __memcpy_sse2_unaligned
                0x0000000000021930                memcpy@GLIBC_2.2.5
                0x0000000000021960                __mempcpy_chk_sse2_unaligned_erms
                0x0000000000021970                __mempcpy_sse2_unaligned_erms
                0x0000000000021980                __memmove_chk_sse2_unaligned_erms
                0x0000000000021980                __memcpy_chk_sse2_unaligned_erms
                0x00000000000219c0                __memmove_sse2_unaligned_erms
                0x00000000000219c0                __memcpy_sse2_unaligned_erms
 .text          0x0000000000021f12        0x0 /home/j/Dokumente/GitHub/FreetimeOS/lfs/build-glibc/libc_pic.a(memmove-ssse3.os)
 .text          0x0000000000021f12        0x0 /home/j/Dokumente/GitHub/FreetimeOS/lfs/build-glibc/libc_pic.a(memset-avx2-unaligned-erms.os)
 .text          0x0000000000021f12        0x0 /home/j/Dokumente/GitHub/FreetimeOS/lfs/build-glibc/libc_pic.a(memset-avx2-unaligned-erms-rtm.os)
 .text          0x0000000000021f12        0x0 /home/j/Dokumente/GitHub/FreetimeOS/lfs/build-glibc/libc_pic.a(memset-avx512-no-vzeroupper.os)
 .text          0x0000000000021f12        0x0 /home/j/Dokumente/GitHub/FreetimeOS/lfs/build-glibc/libc_pic.a(memset-avx512-unaligned-erms.os)
 *fill*         0x0000000000021f12        0xe 
 .text          0x0000000000021f20       0x2d /home/j/Dokumente/GitHub/FreetimeOS/lfs/build-glibc/libc_pic.a(memset-erms.os)
                0x0000000000021f20                __memset_chk_erms
                0x0000000000021f30                __memset_erms
 .text          0x0000000000021f4d        0x0 /home/j/Dokumente/GitHub/FreetimeOS/lfs/build-glibc/libc_pic.a(memset-evex-unaligned-erms.os)
 *fill*         0x0000000000021f4d       0x33 
 .text          0x0000000000021f80      0x1b9 /home/j/Dokumente/GitHub/FreetimeOS/lfs/build-glibc/libc_pic.a(memset-sse2-unaligned-erms.os)
                0x0000000000021f80                __wmemset_chk_sse2_unaligned
                0x0000000000021f90                __wmemset_sse2_unaligned
                0x0000000000021fb0                __memset_chk_sse2_unaligned
                0x0000000000021fc0                __memset_sse2_unaligned
                0x0000000000022000                __memset_chk_sse2_unaligned_erms
                0x0000000000022040                __memset_sse2_unaligned_erms
 .text          0x0000000000022139        0x0 /home/j/Dokumente/GitHub/FreetimeOS/lfs/build-glibc/libc_pic.a(stpcpy-avx2.os)
 .text          0x0000000000022139        0x0 /home/j/Dokumente/GitHub/FreetimeOS/lfs/build-glibc/libc_pic.a(stpcpy-avx2-rtm.os)
 .text          0x0000000000022139        0x0 /home/j/Dokumente/GitHub/FreetimeOS/lfs/build-glibc/libc_pic.a(stpcpy-evex.os)
 *fill*         0x0000000000022139        0x7 
 .text          0x0000000000022140       0xec /home/j/Dokumente/GitHub/FreetimeOS/lfs/build-glibc/libc_pic.a(stpcpy-sse2.os)
                0x0000000000022140                __stpcpy_sse2
 *fill*         0x000000000002222c        0x4 
 .text          0x0000000000022230      0x6c0 /home/j/Dokumente/GitHub/FreetimeOS/lfs/build-glibc/libc_pic.a(stpcpy-sse2-unaligned.os)
                0x0000000000022230                __stpcpy_sse2_unaligned
 .text          0x00000000000228f0        0x0 /home/j/Dokumente/GitHub/FreetimeOS/lfs/build-glibc/libc_pic.a(strchr-avx2.os)
 .text          0x00000000000228f0        0x0 /home/j/Dokumente/GitHub/FreetimeOS/lfs/build-glibc/libc_pic.a(strchr-avx2-rtm.os)
 .text          0x00000000000228f0        0x0 /home/j/Dokumente/GitHub/FreetimeOS/lfs/build-glibc/libc_pic.a(strchr-evex.os)
 .text          0x00000000000228f0      0x22a /home/j/Dokumente/GitHub/FreetimeOS/lfs/build-glibc/libc_pic.a(strchr-sse2.os)
                0x00000000000228f0                __strchr_sse2
 .text          0x0000000000022b1a        0x0 /home/j/Dokumente/GitHub/FreetimeOS/lfs/build-glibc/libc_pic.a(strchr-sse2-no-bsf.os)
 .text          0x0000000000022b1a        0x0 /home/j/Dokumente/GitHub/FreetimeOS/lfs/build-glibc/libc_pic.a(strcmp-avx2.os)
 .text          0x0000000000022b1a        0x0 /home/j/Dokumente/GitHub/FreetimeOS/lfs/build-glibc/libc_pic.a(strcmp-avx2-rtm.os)
 .text          0x0000000000022b1a        0x0 /home/j/Dokumente/GitHub/FreetimeOS/lfs/build-glibc/libc_pic.a(strcmp-evex.os)
 *fill*         0x0000000000022b1a        0x6 
 .text          0x0000000000022b20     0x1449 /home/j/Dokumente/GitHub/FreetimeOS/lfs/build-glibc/libc_pic.a(strcmp-sse2.os)
                0x0000000000022b20                __strcmp_sse2
 *fill*         0x0000000000023f69        0x7 
 .text          0x0000000000023f70      0x2a3 /home/j/Dokumente/GitHub/FreetimeOS/lfs/build-glibc/libc_pic.a(strcmp-sse2-unaligned.os)
                0x0000000000023f70                __strcmp_sse2_unaligned
 .text          0x0000000000024213        0x0 /home/j/Dokumente/GitHub/FreetimeOS/lfs/build-glibc/libc_pic.a(strcmp-sse4_2.os)
 .text          0x0000000000024213        0x0 /home/j/Dokumente/GitHub/FreetimeOS/lfs/build-glibc/libc_pic.a(strcspn-sse4.os)
 .text          0x0000000000024213        0x0 /home/j/Dokumente/GitHub/FreetimeOS/lfs/build-glibc/libc_pic.a(strlen-avx2.os)
 .text          0x0000000000024213        0x0 /home/j/Dokumente/GitHub/FreetimeOS/lfs/build-glibc/libc_pic.a(strlen-avx2-rtm.os)
 .text          0x0000000000024213        0x0 /home/j/Dokumente/GitHub/FreetimeOS/lfs/build-glibc/libc_pic.a(strlen-evex.os)
 *fill*         0x0000000000024213        0xd 
 .text          0x0000000000024220      0x19c /home/j/Dokumente/GitHub/FreetimeOS/lfs/build-glibc/libc_pic.a(strlen-sse2.os)
                0x0000000000024220                __strlen_sse2
 .text          0x00000000000243bc        0x0 /home/j/Dokumente/GitHub/FreetimeOS/lfs/build-glibc/libc_pic.a(strncmp-avx2.os)
 .text          0x00000000000243bc        0x0 /home/j/Dokumente/GitHub/FreetimeOS/lfs/build-glibc/libc_pic.a(strncmp-avx2-rtm.os)
 .text          0x00000000000243bc        0x0 /home/j/Dokumente/GitHub/FreetimeOS/lfs/build-glibc/libc_pic.a(strncmp-evex.os)
 *fill*         0x00000000000243bc        0x4 
 .text          0x00000000000243c0     0x1859 /home/j/Dokumente/GitHub/FreetimeOS/lfs/build-glibc/libc_pic.a(strncmp-sse2.os)
                0x00000000000243c0                __strncmp_sse2
 .text          0x0000000000025c19        0x0 /home/j/Dokumente/GitHub/FreetimeOS/lfs/build-glibc/libc_pic.a(strncmp-sse4_2.os)
 .text          0x0000000000025c19        0x0 /home/j/Dokumente/GitHub/FreetimeOS/lfs/build-glibc/libc_pic.a(strnlen-avx2.os)
 .text          0x0000000000025c19        0x0 /home/j/Dokumente/GitHub/FreetimeOS/lfs/build-glibc/libc_pic.a(strnlen-avx2-rtm.os)
 .text          0x0000000000025c19        0x0 /home/j/Dokumente/GitHub/FreetimeOS/lfs/build-glibc/libc_pic.a(strnlen-evex.os)
 *fill*         0x0000000000025c19        0x7 
 .text          0x0000000000025c20      0x218 /home/j/Dokumente/GitHub/FreetimeOS/lfs/build-glibc/libc_pic.a(strnlen-sse2.os)
                0x0000000000025c20                __strnlen_sse2
 .text          0x0000000000025e38        0x0 /home/j/Dokumente/GitHub/FreetimeOS/lfs/build-glibc/libc_pic.a(varshift.os)
 *fill*         0x0000000000025e38        0x8 
 .text          0x0000000000025e40      0x167 /home/j/Dokumente/GitHub/FreetimeOS/lfs/build-glibc/libc_pic.a(strcspn-generic.os)
                0x0000000000025e40                __strcspn_generic
 *fill*         0x0000000000025fa7        0x9 
 .text          0x0000000000025fb0      0x198 /home/j/Dokumente/GitHub/FreetimeOS/lfs/build-glibc/libc_pic.a(cacheinfo.os)
                0x0000000000025fb0                __x86_cacheinfo
                0x0000000000026050                __cache_sysconf
 *fill*         0x0000000000026148        0x8 
 .text          0x0000000000026150       0x2d /home/j/Dokumente/GitHub/FreetimeOS/lfs/build-glibc/libc_pic.a(closedir.os)
                0x0000000000026150                __closedir
                0x0000000000026150                closedir
 *fill*         0x000000000002617d        0x3 
 .text          0x0000000000026180       0x76 /home/j/Dokumente/GitHub/FreetimeOS/lfs/build-glibc/libc_pic.a(rewinddir.os)
                0x0000000000026180                rewinddir
                0x0000000000026180                __rewinddir
                0x0000000000026180                __GI___rewinddir
 *fill*         0x00000000000261f6        0xa 
 .text          0x0000000000026200       0xd4 /home/j/Dokumente/GitHub/FreetimeOS/lfs/build-glibc/libc_pic.a(readdir64.os)
                0x0000000000026200                readdir
                0x0000000000026200                __readdir64
                0x0000000000026200                __readdir
                0x0000000000026200                __GI___readdir64
                0x0000000000026200                readdir64
 *fill*         0x00000000000262d4        0xc 
 .text          0x00000000000262e0       0xb2 /home/j/Dokumente/GitHub/FreetimeOS/lfs/build-glibc/libc_pic.a(fdopendir.os)
                0x00000000000262e0                fdopendir
                0x00000000000262e0                __fdopendir
 *fill*         0x0000000000026392        0xe 
 .text          0x00000000000263a0       0x2c /home/j/Dokumente/GitHub/FreetimeOS/lfs/build-glibc/libc_pic.a(_exit.os)
                0x00000000000263a0                _Exit
                0x00000000000263a0                __GI__exit
                0x00000000000263a0                _exit
 *fill*         0x00000000000263cc        0x4 
 .text          0x00000000000263d0        0xc /home/j/Dokumente/GitHub/FreetimeOS/lfs/build-glibc/libc_pic.a(getpid.os)
                0x00000000000263d0                __getpid
                0x00000000000263d0                getpid
                0x00000000000263d0                __GI_getpid
                0x00000000000263d0                __GI___getpid
 *fill*         0x00000000000263dc        0x4 
 .text          0x00000000000263e0       0x25 /home/j/Dokumente/GitHub/FreetimeOS/lfs/build-glibc/libc_pic.a(uname.os)
                0x00000000000263e0                uname
                0x00000000000263e0                __GI_uname
                0x00000000000263e0                __uname
                0x00000000000263e0                __GI___uname
 .text          0x0000000000026405        0x0 /home/j/Dokumente/GitHub/FreetimeOS/lfs/build-glibc/libc_pic.a(environ.os)
 *fill*         0x0000000000026405        0xb 
 .text          0x0000000000026410       0x2a /home/j/Dokumente/GitHub/FreetimeOS/lfs/build-glibc/libc_pic.a(access.os)
                0x0000000000026410                __GI___access
                0x0000000000026410                access
                0x0000000000026410                __access
 *fill*         0x000000000002643a        0x6 
 .text          0x0000000000026440       0x2a /home/j/Dokumente/GitHub/FreetimeOS/lfs/build-glibc/libc_pic.a(fstat64.os)
                0x0000000000026440                __GI___fstat64
                0x0000000000026440                fstat64
                0x0000000000026440                fstat
                0x0000000000026440                __fstat64
                0x0000000000026440                __fstat
 *fill*         0x000000000002646a        0x6 
 .text          0x0000000000026470       0x32 /home/j/Dokumente/GitHub/FreetimeOS/lfs/build-glibc/libc_pic.a(fstatat64.os)
                0x0000000000026470                fstatat
                0x0000000000026470                __fstatat
                0x0000000000026470                fstatat64
                0x0000000000026470                __fstatat64
                0x0000000000026470                __GI___fstatat
                0x0000000000026470                __GI___fstatat64
 *fill*         0x00000000000264a2        0xe 
 .text          0x00000000000264b0       0x2c /home/j/Dokumente/GitHub/FreetimeOS/lfs/build-glibc/libc_pic.a(lseek64.os)
                0x00000000000264b0                __GI___lseek
                0x00000000000264b0                __lseek64
                0x00000000000264b0                lseek
                0x00000000000264b0                __libc_lseek64
                0x00000000000264b0                llseek@GLIBC_2.2.5
                0x00000000000264b0                __lseek
                0x00000000000264b0                __libc_lseek
                0x00000000000264b0                lseek64
 *fill*         0x00000000000264dc        0x4 
 .text          0x00000000000264e0       0x19 /home/j/Dokumente/GitHub/FreetimeOS/lfs/build-glibc/libc_pic.a(lstat64.os)
                0x00000000000264e0                __lstat64
                0x00000000000264e0                lstat
                0x00000000000264e0                lstat64
                0x00000000000264e0                __GI___lstat64
                0x00000000000264e0                __lstat
 *fill*         0x00000000000264f9        0x7 
 .text          0x0000000000026500       0xf3 /home/j/Dokumente/GitHub/FreetimeOS/lfs/build-glibc/libc_pic.a(openat64.os)
                0x0000000000026500                __openat64
                0x0000000000026500                __GI___openat
                0x0000000000026500                __GI___openat64
                0x0000000000026500                __libc_openat64
                0x0000000000026500                __openat
                0x0000000000026500                openat
 *fill*         0x00000000000265f3        0xd 
 .text          0x0000000000026600       0x16 /home/j/Dokumente/GitHub/FreetimeOS/lfs/build-glibc/libc_pic.a(stat64.os)
                0x0000000000026600                stat64
                0x0000000000026600                __stat
                0x0000000000026600                __stat64
                0x0000000000026600                stat
                0x0000000000026600                __GI___stat64
 *fill*         0x0000000000026616        0xa 
 .text          0x0000000000026620       0x2a /home/j/Dokumente/GitHub/FreetimeOS/lfs/build-glibc/libc_pic.a(close_nocancel.os)
                0x0000000000026620                __GI___close_nocancel
                0x0000000000026620                __close_nocancel
 *fill*         0x000000000002664a        0x6 
 .text          0x0000000000026650       0xde /home/j/Dokumente/GitHub/FreetimeOS/lfs/build-glibc/libc_pic.a(fcntl_nocancel.os)
                0x0000000000026650                __fcntl64_nocancel
                0x0000000000026650                __GI___fcntl64_nocancel
                0x00000000000266d0                __fcntl64_nocancel_adjusted
 *fill*         0x000000000002672e        0x2 
 .text          0x0000000000026730       0x7a /home/j/Dokumente/GitHub/FreetimeOS/lfs/build-glibc/libc_pic.a(open64_nocancel.os)
                0x0000000000026730                __GI___open_nocancel
                0x0000000000026730                __open_nocancel
                0x0000000000026730                __GI___open64_nocancel
                0x0000000000026730                __open64_nocancel
 *fill*         0x00000000000267aa        0x6 
 .text          0x00000000000267b0       0x34 /home/j/Dokumente/GitHub/FreetimeOS/lfs/build-glibc/libc_pic.a(pread64_nocancel.os)
                0x00000000000267b0                __GI___pread64_nocancel
                0x00000000000267b0                __pread64_nocancel
 *fill*         0x00000000000267e4        0xc 
 .text          0x00000000000267f0       0x2c /home/j/Dokumente/GitHub/FreetimeOS/lfs/build-glibc/libc_pic.a(read_nocancel.os)
                0x00000000000267f0                __read_nocancel
                0x00000000000267f0                __GI___read_nocancel
 *fill*         0x000000000002681c        0x4 
 .text          0x0000000000026820       0x2c /home/j/Dokumente/GitHub/FreetimeOS/lfs/build-glibc/libc_pic.a(write_nocancel.os)
                0x0000000000026820                __GI___write_nocancel
                0x0000000000026820                __write_nocancel
 *fill*         0x000000000002684c        0x4 
 .text          0x0000000000026850       0xb8 /home/j/Dokumente/GitHub/FreetimeOS/lfs/build-glibc/libc_pic.a(mmap64.os)
                0x0000000000026850                __GI___mmap
                0x0000000000026850                __mmap
                0x0000000000026850                mmap
                0x0000000000026850                __GI___mmap64
                0x0000000000026850                __mmap64
                0x0000000000026850                mmap64
 *fill*         0x0000000000026908        0x8 
 .text          0x0000000000026910       0x25 /home/j/Dokumente/GitHub/FreetimeOS/lfs/build-glibc/libc_pic.a(mprotect.os)
                0x0000000000026910                __mprotect
                0x0000000000026910                __GI___mprotect
                0x0000000000026910                __GI_mprotect
                0x0000000000026910                mprotect
 *fill*         0x0000000000026935        0xb 
 .text          0x0000000000026940       0x25 /home/j/Dokumente/GitHub/FreetimeOS/lfs/build-glibc/libc_pic.a(munmap.os)
                0x0000000000026940                munmap
                0x0000000000026940                __GI___munmap
                0x0000000000026940                __GI_munmap
                0x0000000000026940                __munmap
 .text          0x0000000000026965        0x0 /home/j/Dokumente/GitHub/FreetimeOS/lfs/build-glibc/libc_pic.a(single_threaded.os)
 *fill*         0x0000000000026965        0xb 
 .text          0x0000000000026970       0x73 /home/j/Dokumente/GitHub/FreetimeOS/lfs/build-glibc/libc_pic.a(setvmaname.os)
                0x0000000000026970                __set_vma_name
 *fill*         0x00000000000269e3        0xd 
 .text          0x00000000000269f0      0x1e2 /home/j/Dokumente/GitHub/FreetimeOS/lfs/build-glibc/libc_pic.a(profil.os)
                0x0000000000026a40                __profil
                0x0000000000026a40                profil
 *fill*         0x0000000000026bd2        0xe 
 .text          0x0000000000026be0        0xf /home/j/Dokumente/GitHub/FreetimeOS/lfs/build-glibc/libc_pic.a(prof-freq.os)
                0x0000000000026be0                __GI___profile_frequency
                0x0000000000026be0                __profile_frequency
 *fill*         0x0000000000026bef        0x1 
 .text          0x0000000000026bf0       0x7b /home/j/Dokumente/GitHub/FreetimeOS/lfs/build-glibc/libc_pic.a(dl-addr-obj.os)
                0x0000000000026bf0                _dl_addr_inside_object
 *fill*         0x0000000000026c6b        0x5 
 .text          0x0000000000026c70       0x34 /home/j/Dokumente/GitHub/FreetimeOS/lfs/build-glibc/libc_pic.a(sigaction.os)
                0x0000000000026c70                sigaction
                0x0000000000026c70                __GI___sigaction
                0x0000000000026c70                __sigaction
 *fill*         0x0000000000026ca4        0xc 
 .text          0x0000000000026cb0      0x1bb /home/j/Dokumente/GitHub/FreetimeOS/lfs/build-glibc/libc_pic.a(libc_sigaction.os)
                0x0000000000026cd0                __libc_sigaction
                0x0000000000026cd0                __GI___libc_sigaction
 *fill*         0x0000000000026e6b        0x5 
 .text          0x0000000000026e70       0x33 /home/j/Dokumente/GitHub/FreetimeOS/lfs/build-glibc/libc_pic.a(errname.os)
                0x0000000000026e70                __get_errname
 *fill*         0x0000000000026ea3        0xd 
 .text          0x0000000000026eb0       0x81 /home/j/Dokumente/GitHub/FreetimeOS/lfs/build-glibc/libc_pic.a(strchrnul.os)
                0x0000000000026eb0                __GI___strchrnul
                0x0000000000026eb0                __strchrnul
                0x0000000000026eb0                strchrnul
 .text          0x0000000000026f31        0x0 /home/j/Dokumente/GitHub/FreetimeOS/lfs/build-glibc/libc_pic.a(strchrnul-avx2.os)
 .text          0x0000000000026f31        0x0 /home/j/Dokumente/GitHub/FreetimeOS/lfs/build-glibc/libc_pic.a(strchrnul-avx2-rtm.os)
 .text          0x0000000000026f31        0x0 /home/j/Dokumente/GitHub/FreetimeOS/lfs/build-glibc/libc_pic.a(strchrnul-evex.os)
 *fill*         0x0000000000026f31        0xf 
 .text          0x0000000000026f40      0x20a /home/j/Dokumente/GitHub/FreetimeOS/lfs/build-glibc/libc_pic.a(strchrnul-sse2.os)
                0x0000000000026f40                __strchrnul_sse2
 *fill*         0x000000000002714a        0x6 
 .text          0x0000000000027150       0x2a /home/j/Dokumente/GitHub/FreetimeOS/lfs/build-glibc/libc_pic.a(setitimer.os)
                0x0000000000027150                setitimer
                0x0000000000027150                __setitimer
 *fill*         0x000000000002717a        0x6 
 .text          0x0000000000027180       0x34 /home/j/Dokumente/GitHub/FreetimeOS/lfs/build-glibc/libc_pic.a(getdents64.os)
                0x0000000000027180                __getdents
                0x0000000000027180                __GI___getdents64
                0x0000000000027180                getdents64
                0x0000000000027180                __getdents64
 *(.gnu.warning)

.text.evex512   0x0000000000000000      0xe68
 .text.evex512  0x0000000000000000      0x3fd /home/j/Dokumente/GitHub/FreetimeOS/lfs/build-glibc/elf/dl-allobjs.os
                0x0000000000000000                _dl_runtime_profile_avx512
 *fill*         0x00000000000003fd        0x3 
 .text.evex512  0x0000000000000400      0x880 /home/j/Dokumente/GitHub/FreetimeOS/lfs/build-glibc/libc_pic.a(memmove-avx512-unaligned-erms.os)
                0x0000000000000400                __mempcpy_chk_avx512_unaligned
                0x0000000000000410                __mempcpy_avx512_unaligned
                0x0000000000000420                __memcpy_chk_avx512_unaligned
                0x0000000000000420                __memmove_chk_avx512_unaligned
                0x0000000000000430                __memmove_avx512_unaligned
                0x0000000000000430                __memcpy_avx512_unaligned
                0x0000000000000470                __mempcpy_chk_avx512_unaligned_erms
                0x0000000000000480                __mempcpy_avx512_unaligned_erms
                0x0000000000000490                __memcpy_chk_avx512_unaligned_erms
                0x0000000000000490                __memmove_chk_avx512_unaligned_erms
                0x00000000000004c0                __memmove_avx512_unaligned_erms
                0x00000000000004c0                __memcpy_avx512_unaligned_erms
 .text.evex512  0x0000000000000c80      0x1e8 /home/j/Dokumente/GitHub/FreetimeOS/lfs/build-glibc/libc_pic.a(memset-avx512-unaligned-erms.os)
                0x0000000000000c80                __wmemset_chk_avx512_unaligned
                0x0000000000000c90                __wmemset_avx512_unaligned
                0x0000000000000cb0                __memset_chk_avx512_unaligned
                0x0000000000000cc0                __memset_avx512_unaligned
                0x0000000000000cf0                __memset_chk_avx512_unaligned_erms
                0x0000000000000d00                __memset_avx512_unaligned_erms

.text.avx       0x0000000000000000     0x2b24
 .text.avx      0x0000000000000000      0x3ef /home/j/Dokumente/GitHub/FreetimeOS/lfs/build-glibc/elf/dl-allobjs.os
                0x0000000000000000                _dl_runtime_profile_avx
 *fill*         0x00000000000003ef       0x11 
 .text.avx      0x0000000000000400      0x297 /home/j/Dokumente/GitHub/FreetimeOS/lfs/build-glibc/libc_pic.a(memchr-avx2.os)
                0x0000000000000400                __memchr_avx2
 *fill*         0x0000000000000697        0x9 
 .text.avx      0x00000000000006a0      0x3ff /home/j/Dokumente/GitHub/FreetimeOS/lfs/build-glibc/libc_pic.a(memcmp-avx2-movbe.os)
                0x00000000000006a0                __memcmp_avx2_movbe
 *fill*         0x0000000000000a9f       0x21 
 .text.avx      0x0000000000000ac0      0x79e /home/j/Dokumente/GitHub/FreetimeOS/lfs/build-glibc/libc_pic.a(memmove-avx-unaligned-erms.os)
                0x0000000000000ac0                __mempcpy_chk_avx_unaligned
                0x0000000000000ad0                __mempcpy_avx_unaligned
                0x0000000000000ae0                __memcpy_chk_avx_unaligned
                0x0000000000000ae0                __memmove_chk_avx_unaligned
                0x0000000000000af0                __memcpy_avx_unaligned
                0x0000000000000af0                __memmove_avx_unaligned
                0x0000000000000b30                __mempcpy_chk_avx_unaligned_erms
                0x0000000000000b40                __mempcpy_avx_unaligned_erms
                0x0000000000000b50                __memmove_chk_avx_unaligned_erms
                0x0000000000000b50                __memcpy_chk_avx_unaligned_erms
                0x0000000000000b80                __memcpy_avx_unaligned_erms
                0x0000000000000b80                __memmove_avx_unaligned_erms
 *fill*         0x000000000000125e       0x22 
 .text.avx      0x0000000000001280      0x1fd /home/j/Dokumente/GitHub/FreetimeOS/lfs/build-glibc/libc_pic.a(memset-avx2-unaligned-erms.os)
                0x0000000000001280                __wmemset_chk_avx2_unaligned
                0x0000000000001290                __wmemset_avx2_unaligned
                0x00000000000012c0                __memset_chk_avx2_unaligned
                0x00000000000012d0                __memset_avx2_unaligned
                0x0000000000001310                __memset_chk_avx2_unaligned_erms
                0x0000000000001340                __memset_avx2_unaligned_erms
 *fill*         0x000000000000147d        0x3 
 .text.avx      0x0000000000001480      0x251 /home/j/Dokumente/GitHub/FreetimeOS/lfs/build-glibc/libc_pic.a(stpcpy-avx2.os)
                0x0000000000001480                __stpcpy_avx2
 *fill*         0x00000000000016d1        0xf 
 .text.avx      0x00000000000016e0      0x23c /home/j/Dokumente/GitHub/FreetimeOS/lfs/build-glibc/libc_pic.a(strchr-avx2.os)
                0x00000000000016e0                __strchr_avx2
 *fill*         0x000000000000191c        0x4 
 .text.avx      0x0000000000001920      0x555 /home/j/Dokumente/GitHub/FreetimeOS/lfs/build-glibc/libc_pic.a(strcmp-avx2.os)
                0x0000000000001920                __strcmp_avx2
 *fill*         0x0000000000001e75        0xb 
 .text.avx      0x0000000000001e80      0x172 /home/j/Dokumente/GitHub/FreetimeOS/lfs/build-glibc/libc_pic.a(strlen-avx2.os)
                0x0000000000001e80                __strlen_avx2
 *fill*         0x0000000000001ff2        0xe 
 .text.avx      0x0000000000002000      0x64e /home/j/Dokumente/GitHub/FreetimeOS/lfs/build-glibc/libc_pic.a(strncmp-avx2.os)
                0x0000000000002000                __strncmp_avx2
 *fill*         0x000000000000264e       0x12 
 .text.avx      0x0000000000002660      0x2ce /home/j/Dokumente/GitHub/FreetimeOS/lfs/build-glibc/libc_pic.a(strnlen-avx2.os)
                0x0000000000002660                __strnlen_avx2
 *fill*         0x000000000000292e       0x12 
 .text.avx      0x0000000000002940      0x1e4 /home/j/Dokumente/GitHub/FreetimeOS/lfs/build-glibc/libc_pic.a(strchrnul-avx2.os)
                0x0000000000002940                __strchrnul_avx2

.text.compat    0x0000000000000000        0x5
 .text.compat   0x0000000000000000        0x5 /home/j/Dokumente/GitHub/FreetimeOS/lfs/build-glibc/elf/dl-allobjs.os
                0x0000000000000000                __rtld_version_placeholder_1
                0x0000000000000000                __rtld_version_placeholder@GLIBC_2.34

.text.avx.rtm   0x0000000000000000     0x2765
 .text.avx.rtm  0x0000000000000000      0x2b8 /home/j/Dokumente/GitHub/FreetimeOS/lfs/build-glibc/libc_pic.a(memchr-avx2-rtm.os)
                0x0000000000000000                __memchr_avx2_rtm
 *fill*         0x00000000000002b8        0x8 
 .text.avx.rtm  0x00000000000002c0      0x3ff /home/j/Dokumente/GitHub/FreetimeOS/lfs/build-glibc/libc_pic.a(memcmp-avx2-movbe-rtm.os)
                0x00000000000002c0                __memcmp_avx2_movbe_rtm
 *fill*         0x00000000000006bf        0x1 
 .text.avx.rtm  0x00000000000006c0      0x79f /home/j/Dokumente/GitHub/FreetimeOS/lfs/build-glibc/libc_pic.a(memmove-avx-unaligned-erms-rtm.os)
                0x00000000000006c0                __mempcpy_chk_avx_unaligned_rtm
                0x00000000000006d0                __mempcpy_avx_unaligned_rtm
                0x00000000000006e0                __memmove_chk_avx_unaligned_rtm
                0x00000000000006e0                __memcpy_chk_avx_unaligned_rtm
                0x00000000000006f0                __memcpy_avx_unaligned_rtm
                0x00000000000006f0                __memmove_avx_unaligned_rtm
                0x0000000000000730                __mempcpy_chk_avx_unaligned_erms_rtm
                0x0000000000000740                __mempcpy_avx_unaligned_erms_rtm
                0x0000000000000750                __memcpy_chk_avx_unaligned_erms_rtm
                0x0000000000000750                __memmove_chk_avx_unaligned_erms_rtm
                0x0000000000000780                __memmove_avx_unaligned_erms_rtm
                0x0000000000000780                __memcpy_avx_unaligned_erms_rtm
 *fill*         0x0000000000000e5f       0x21 
 .text.avx.rtm  0x0000000000000e80      0x1fd /home/j/Dokumente/GitHub/FreetimeOS/lfs/build-glibc/libc_pic.a(memset-avx2-unaligned-erms-rtm.os)
                0x0000000000000e80                __wmemset_chk_avx2_unaligned_rtm
                0x0000000000000e90                __wmemset_avx2_unaligned_rtm
                0x0000000000000ec0                __memset_chk_avx2_unaligned_rtm
                0x0000000000000ed0                __memset_avx2_unaligned_rtm
                0x0000000000000f10                __memset_chk_avx2_unaligned_erms_rtm
                0x0000000000000f40                __memset_avx2_unaligned_erms_rtm
 *fill*         0x000000000000107d        0x3 
 .text.avx.rtm  0x0000000000001080      0x24d /home/j/Dokumente/GitHub/FreetimeOS/lfs/build-glibc/libc_pic.a(stpcpy-avx2-rtm.os)
                0x0000000000001080                __stpcpy_avx2_rtm
 *fill*         0x00000000000012cd       0x13 
 .text.avx.rtm  0x00000000000012e0      0x22f /home/j/Dokumente/GitHub/FreetimeOS/lfs/build-glibc/libc_pic.a(strchr-avx2-rtm.os)
                0x00000000000012e0                __strchr_avx2_rtm
 *fill*         0x000000000000150f        0x1 
 .text.avx.rtm  0x0000000000001510      0x555 /home/j/Dokumente/GitHub/FreetimeOS/lfs/build-glibc/libc_pic.a(strcmp-avx2-rtm.os)
                0x0000000000001510                __strcmp_avx2_rtm
 *fill*         0x0000000000001a65       0x1b 
 .text.avx.rtm  0x0000000000001a80      0x16b /home/j/Dokumente/GitHub/FreetimeOS/lfs/build-glibc/libc_pic.a(strlen-avx2-rtm.os)
                0x0000000000001a80                __strlen_avx2_rtm
 *fill*         0x0000000000001beb        0x5 
 .text.avx.rtm  0x0000000000001bf0      0x67e /home/j/Dokumente/GitHub/FreetimeOS/lfs/build-glibc/libc_pic.a(strncmp-avx2-rtm.os)
                0x0000000000001bf0                __strncmp_avx2_rtm
 *fill*         0x000000000000226e       0x12 
 .text.avx.rtm  0x0000000000002280      0x2fc /home/j/Dokumente/GitHub/FreetimeOS/lfs/build-glibc/libc_pic.a(strnlen-avx2-rtm.os)
                0x0000000000002280                __strnlen_avx2_rtm
 *fill*         0x000000000000257c        0x4 
 .text.avx.rtm  0x0000000000002580      0x1e5 /home/j/Dokumente/GitHub/FreetimeOS/lfs/build-glibc/libc_pic.a(strchrnul-avx2-rtm.os)
                0x0000000000002580                __strchrnul_avx2_rtm

.text.evex      0x0000000000000000     0x2657
 .text.evex     0x0000000000000000      0x24f /home/j/Dokumente/GitHub/FreetimeOS/lfs/build-glibc/libc_pic.a(memchr-evex.os)
                0x0000000000000000                __memchr_evex
 *fill*         0x000000000000024f       0x31 
 .text.evex     0x0000000000000280      0x2fe /home/j/Dokumente/GitHub/FreetimeOS/lfs/build-glibc/libc_pic.a(memcmp-evex-movbe.os)
                0x0000000000000280                __memcmp_evex_movbe
 *fill*         0x000000000000057e        0x2 
 .text.evex     0x0000000000000580      0x87b /home/j/Dokumente/GitHub/FreetimeOS/lfs/build-glibc/libc_pic.a(memmove-evex-unaligned-erms.os)
                0x0000000000000580                __mempcpy_chk_evex_unaligned
                0x0000000000000590                __mempcpy_evex_unaligned
                0x00000000000005a0                __memcpy_chk_evex_unaligned
                0x00000000000005a0                __memmove_chk_evex_unaligned
                0x00000000000005b0                __memmove_evex_unaligned
                0x00000000000005b0                __memcpy_evex_unaligned
                0x00000000000005f0                __mempcpy_chk_evex_unaligned_erms
                0x0000000000000600                __mempcpy_evex_unaligned_erms
                0x0000000000000610                __memcpy_chk_evex_unaligned_erms
                0x0000000000000610                __memmove_chk_evex_unaligned_erms
                0x0000000000000640                __memmove_evex_unaligned_erms
                0x0000000000000640                __memcpy_evex_unaligned_erms
 *fill*         0x0000000000000dfb        0x5 
 .text.evex     0x0000000000000e00      0x1c8 /home/j/Dokumente/GitHub/FreetimeOS/lfs/build-glibc/libc_pic.a(memset-evex-unaligned-erms.os)
                0x0000000000000e00                __wmemset_chk_evex_unaligned
                0x0000000000000e10                __wmemset_evex_unaligned
                0x0000000000000e30                __memset_chk_evex_unaligned
                0x0000000000000e40                __memset_evex_unaligned
                0x0000000000000e70                __memset_chk_evex_unaligned_erms
                0x0000000000000e80                __memset_evex_unaligned_erms
 *fill*         0x0000000000000fc8        0x8 
 .text.evex     0x0000000000000fd0      0x2e0 /home/j/Dokumente/GitHub/FreetimeOS/lfs/build-glibc/libc_pic.a(stpcpy-evex.os)
                0x0000000000000fd0                __stpcpy_evex
 *fill*         0x00000000000012b0       0x10 
 .text.evex     0x00000000000012c0      0x1ff /home/j/Dokumente/GitHub/FreetimeOS/lfs/build-glibc/libc_pic.a(strchr-evex.os)
                0x00000000000012c0                __strchr_evex
 *fill*         0x00000000000014bf        0x1 
 .text.evex     0x00000000000014c0      0x553 /home/j/Dokumente/GitHub/FreetimeOS/lfs/build-glibc/libc_pic.a(strcmp-evex.os)
                0x00000000000014c0                __strcmp_evex
 *fill*         0x0000000000001a13       0x2d 
 .text.evex     0x0000000000001a40      0x15d /home/j/Dokumente/GitHub/FreetimeOS/lfs/build-glibc/libc_pic.a(strlen-evex.os)
                0x0000000000001a40                __strlen_evex
 *fill*         0x0000000000001b9d        0x3 
 .text.evex     0x0000000000001ba0      0x66c /home/j/Dokumente/GitHub/FreetimeOS/lfs/build-glibc/libc_pic.a(strncmp-evex.os)
                0x0000000000001ba0                __strncmp_evex
 *fill*         0x000000000000220c       0x34 
 .text.evex     0x0000000000002240      0x217 /home/j/Dokumente/GitHub/FreetimeOS/lfs/build-glibc/libc_pic.a(strnlen-evex.os)
                0x0000000000002240                __strnlen_evex
 *fill*         0x0000000000002457       0x29 
 .text.evex     0x0000000000002480      0x1d7 /home/j/Dokumente/GitHub/FreetimeOS/lfs/build-glibc/libc_pic.a(strchrnul-evex.os)
                0x0000000000002480                __strchrnul_evex

.text.evex.rtm  0x0000000000000000      0x24f
 .text.evex.rtm
                0x0000000000000000      0x24f /home/j/Dokumente/GitHub/FreetimeOS/lfs/build-glibc/libc_pic.a(memchr-evex-rtm.os)
                0x0000000000000000                __memchr_evex_rtm

.text.avx512    0x0000000000000000      0x9f4
 .text.avx512   0x0000000000000000      0x76f /home/j/Dokumente/GitHub/FreetimeOS/lfs/build-glibc/libc_pic.a(memmove-avx512-no-vzeroupper.os)
                0x0000000000000000                __mempcpy_chk_avx512_no_vzeroupper
                0x0000000000000010                __mempcpy_avx512_no_vzeroupper
                0x0000000000000020                __memcpy_chk_avx512_no_vzeroupper
                0x0000000000000020                __memmove_chk_avx512_no_vzeroupper
                0x0000000000000030                __memcpy_avx512_no_vzeroupper
                0x0000000000000030                __memmove_avx512_no_vzeroupper
 *fill*         0x000000000000076f        0x1 
 .text.avx512   0x0000000000000770      0x284 /home/j/Dokumente/GitHub/FreetimeOS/lfs/build-glibc/libc_pic.a(memset-avx512-no-vzeroupper.os)
                0x0000000000000770                __memset_chk_avx512_no_vzeroupper
                0x0000000000000780                __memset_avx512_no_vzeroupper

.text.ssse3     0x0000000000000000      0xf7d
 .text.ssse3    0x0000000000000000      0xf7d /home/j/Dokumente/GitHub/FreetimeOS/lfs/build-glibc/libc_pic.a(memmove-ssse3.os)
                0x0000000000000000                __mempcpy_chk_ssse3
                0x0000000000000010                __mempcpy_ssse3
                0x0000000000000020                __memcpy_chk_ssse3
                0x0000000000000020                __memmove_chk_ssse3
                0x0000000000000040                __memcpy_ssse3
                0x0000000000000040                __memmove_ssse3

.text.atom      0x0000000000000000      0x315
 .text.atom     0x0000000000000000      0x315 /home/j/Dokumente/GitHub/FreetimeOS/lfs/build-glibc/libc_pic.a(strchr-sse2-no-bsf.os)
                0x0000000000000000                __strchr_sse2_no_bsf

.text.sse4.2    0x0000000000000000     0x1ea9
 .text.sse4.2   0x0000000000000000      0xda9 /home/j/Dokumente/GitHub/FreetimeOS/lfs/build-glibc/libc_pic.a(strcmp-sse4_2.os)
                0x0000000000000000                __strcmp_sse42
 *fill*         0x0000000000000da9        0x7 
 .text.sse4.2   0x0000000000000db0      0x11b /home/j/Dokumente/GitHub/FreetimeOS/lfs/build-glibc/libc_pic.a(strcspn-sse4.os)
                0x0000000000000db0                __strcspn_sse42
 *fill*         0x0000000000000ecb        0x5 
 .text.sse4.2   0x0000000000000ed0      0xfd9 /home/j/Dokumente/GitHub/FreetimeOS/lfs/build-glibc/libc_pic.a(strncmp-sse4_2.os)
                0x0000000000000ed0                __strncmp_sse42

.fini
 *(SORT_NONE(.fini))

.rodata         0x0000000000000000     0x19d5
 *(.rodata)
 .rodata        0x0000000000000000     0x12f2 /home/j/Dokumente/GitHub/FreetimeOS/lfs/build-glibc/elf/dl-allobjs.os
 .rodata        0x00000000000012f2       0x80 /home/j/Dokumente/GitHub/FreetimeOS/lfs/build-glibc/libc_pic.a(stpcpy-sse2-unaligned.os)
 *fill*         0x0000000000001372        0x6 
 .rodata        0x0000000000001378       0x40 /home/j/Dokumente/GitHub/FreetimeOS/lfs/build-glibc/libc_pic.a(strcmp-sse2.os)
 .rodata        0x00000000000013b8       0x40 /home/j/Dokumente/GitHub/FreetimeOS/lfs/build-glibc/libc_pic.a(strncmp-sse2.os)
 *fill*         0x00000000000013f8        0x8 
 .rodata        0x0000000000001400       0x1f /home/j/Dokumente/GitHub/FreetimeOS/lfs/build-glibc/libc_pic.a(varshift.os)
                0x0000000000001400                ___m128i_shift_right
 *fill*         0x000000000000141f        0x1 
 .rodata        0x0000000000001420       0x34 /home/j/Dokumente/GitHub/FreetimeOS/lfs/build-glibc/libc_pic.a(cacheinfo.os)
 *fill*         0x0000000000001454        0xc 
 .rodata        0x0000000000001460      0x575 /home/j/Dokumente/GitHub/FreetimeOS/lfs/build-glibc/libc_pic.a(errname.os)

.rodata.str1.1  0x0000000000000000     0x184f
 .rodata.str1.1
                0x0000000000000000     0x183b /home/j/Dokumente/GitHub/FreetimeOS/lfs/build-glibc/elf/dl-allobjs.os
 .rodata.str1.1
                0x000000000000183b       0x14 /home/j/Dokumente/GitHub/FreetimeOS/lfs/build-glibc/libc_pic.a(check_fds.os)

.rodata.str1.16
                0x0000000000000000      0x545
 .rodata.str1.16
                0x0000000000000000      0x545 /home/j/Dokumente/GitHub/FreetimeOS/lfs/build-glibc/elf/dl-allobjs.os
                0x0000000000000390                _dl_hwcaps_subdirs
                0x00000000000003f0                __GI__itoa_lower_digits
                0x00000000000003f0                _itoa_lower_digits

.rodata.str1.8  0x0000000000000000     0x2fb7
 .rodata.str1.8
                0x0000000000000000     0x2f79 /home/j/Dokumente/GitHub/FreetimeOS/lfs/build-glibc/elf/dl-allobjs.os
 *fill*         0x0000000000002f79        0x7 
 .rodata.str1.8
                0x0000000000002f80       0x37 /home/j/Dokumente/GitHub/FreetimeOS/lfs/build-glibc/libc_pic.a(lowlevellock.os)

.rodata.str1.32
                0x0000000000000000       0x5b
 .rodata.str1.32
                0x0000000000000000       0x5b /home/j/Dokumente/GitHub/FreetimeOS/lfs/build-glibc/elf/dl-allobjs.os

.rodata.cst4    0x0000000000000000        0x8
 .rodata.cst4   0x0000000000000000        0x8 /home/j/Dokumente/GitHub/FreetimeOS/lfs/build-glibc/elf/dl-allobjs.os
                0x0000000000000004                __rseq_flags

.rodata.cst2    0x0000000000000000        0x4
 .rodata.cst2   0x0000000000000000        0x4 /home/j/Dokumente/GitHub/FreetimeOS/lfs/build-glibc/elf/dl-allobjs.os

.rodata.cst16   0x0000000000000000       0x30
 .rodata.cst16  0x0000000000000000       0x30 /home/j/Dokumente/GitHub/FreetimeOS/lfs/build-glibc/elf/dl-allobjs.os

.rodata.cst8    0x0000000000000000        0x8
 .rodata.cst8   0x0000000000000000        0x8 /home/j/Dokumente/GitHub/FreetimeOS/lfs/build-glibc/elf/dl-allobjs.os

.rodata.sse4.2  0x0000000000000000       0x80
 .rodata.sse4.2
                0x0000000000000000       0x40 /home/j/Dokumente/GitHub/FreetimeOS/lfs/build-glibc/libc_pic.a(strcmp-sse4_2.os)
 .rodata.sse4.2
                0x0000000000000040       0x40 /home/j/Dokumente/GitHub/FreetimeOS/lfs/build-glibc/libc_pic.a(strncmp-sse4_2.os)

.rodata1
 *(.rodata1)

.eh_frame_hdr
 *(.eh_frame_hdr)

.eh_frame       0x0000000000000000     0x5224
 *(.eh_frame)
 .eh_frame      0x0000000000000000     0x34f8 /home/j/Dokumente/GitHub/FreetimeOS/lfs/build-glibc/elf/dl-allobjs.os
                                       0x3578 (size before relaxing)
 .eh_frame      0x00000000000034f8       0x68 /home/j/Dokumente/GitHub/FreetimeOS/lfs/build-glibc/libc_pic.a(check_fds.os)
 .eh_frame      0x0000000000003560       0x30 /home/j/Dokumente/GitHub/FreetimeOS/lfs/build-glibc/libc_pic.a(setjmp.os)
 .eh_frame      0x0000000000003590       0x48 /home/j/Dokumente/GitHub/FreetimeOS/lfs/build-glibc/libc_pic.a(__longjmp.os)
 .eh_frame      0x00000000000035d8       0x70 /home/j/Dokumente/GitHub/FreetimeOS/lfs/build-glibc/libc_pic.a(lowlevellock.os)
 .eh_frame      0x0000000000003648       0x48 /home/j/Dokumente/GitHub/FreetimeOS/lfs/build-glibc/libc_pic.a(scratch_buffer_set_array_size.os)
 .eh_frame      0x0000000000003690       0x30 /home/j/Dokumente/GitHub/FreetimeOS/lfs/build-glibc/libc_pic.a(memchr.os)
 .eh_frame      0x00000000000036c0       0x30 /home/j/Dokumente/GitHub/FreetimeOS/lfs/build-glibc/libc_pic.a(memcmp.os)
 .eh_frame      0x00000000000036f0       0x30 /home/j/Dokumente/GitHub/FreetimeOS/lfs/build-glibc/libc_pic.a(memcpy.os)
 .eh_frame      0x0000000000003720       0x30 /home/j/Dokumente/GitHub/FreetimeOS/lfs/build-glibc/libc_pic.a(memmove.os)
 .eh_frame      0x0000000000003750       0x30 /home/j/Dokumente/GitHub/FreetimeOS/lfs/build-glibc/libc_pic.a(mempcpy.os)
 .eh_frame      0x0000000000003780       0x30 /home/j/Dokumente/GitHub/FreetimeOS/lfs/build-glibc/libc_pic.a(memset.os)
 .eh_frame      0x00000000000037b0       0x30 /home/j/Dokumente/GitHub/FreetimeOS/lfs/build-glibc/libc_pic.a(stpcpy.os)
 .eh_frame      0x00000000000037e0       0x30 /home/j/Dokumente/GitHub/FreetimeOS/lfs/build-glibc/libc_pic.a(strchr.os)
 .eh_frame      0x0000000000003810       0x30 /home/j/Dokumente/GitHub/FreetimeOS/lfs/build-glibc/libc_pic.a(strcmp.os)
 .eh_frame      0x0000000000003840       0x30 /home/j/Dokumente/GitHub/FreetimeOS/lfs/build-glibc/libc_pic.a(strcspn.os)
 .eh_frame      0x0000000000003870       0x50 /home/j/Dokumente/GitHub/FreetimeOS/lfs/build-glibc/libc_pic.a(strdup.os)
 .eh_frame      0x00000000000038c0       0x30 /home/j/Dokumente/GitHub/FreetimeOS/lfs/build-glibc/libc_pic.a(strerrorname_np.os)
 .eh_frame      0x00000000000038f0       0x30 /home/j/Dokumente/GitHub/FreetimeOS/lfs/build-glibc/libc_pic.a(strlen.os)
 .eh_frame      0x0000000000003920       0x30 /home/j/Dokumente/GitHub/FreetimeOS/lfs/build-glibc/libc_pic.a(strncmp.os)
 .eh_frame      0x0000000000003950       0x30 /home/j/Dokumente/GitHub/FreetimeOS/lfs/build-glibc/libc_pic.a(strnlen.os)
 .eh_frame      0x0000000000003980       0x30 /home/j/Dokumente/GitHub/FreetimeOS/lfs/build-glibc/libc_pic.a(memchr-avx2.os)
 .eh_frame      0x00000000000039b0       0x30 /home/j/Dokumente/GitHub/FreetimeOS/lfs/build-glibc/libc_pic.a(memchr-avx2-rtm.os)
 .eh_frame      0x00000000000039e0       0x30 /home/j/Dokumente/GitHub/FreetimeOS/lfs/build-glibc/libc_pic.a(memchr-evex.os)
 .eh_frame      0x0000000000003a10       0x30 /home/j/Dokumente/GitHub/FreetimeOS/lfs/build-glibc/libc_pic.a(memchr-evex-rtm.os)
 .eh_frame      0x0000000000003a40       0x30 /home/j/Dokumente/GitHub/FreetimeOS/lfs/build-glibc/libc_pic.a(memchr-sse2.os)
 .eh_frame      0x0000000000003a70       0x30 /home/j/Dokumente/GitHub/FreetimeOS/lfs/build-glibc/libc_pic.a(memcmp-avx2-movbe.os)
 .eh_frame      0x0000000000003aa0       0x30 /home/j/Dokumente/GitHub/FreetimeOS/lfs/build-glibc/libc_pic.a(memcmp-avx2-movbe-rtm.os)
 .eh_frame      0x0000000000003ad0       0x30 /home/j/Dokumente/GitHub/FreetimeOS/lfs/build-glibc/libc_pic.a(memcmp-evex-movbe.os)
 .eh_frame      0x0000000000003b00       0x30 /home/j/Dokumente/GitHub/FreetimeOS/lfs/build-glibc/libc_pic.a(memcmp-sse2.os)
 .eh_frame      0x0000000000003b30       0xb8 /home/j/Dokumente/GitHub/FreetimeOS/lfs/build-glibc/libc_pic.a(memmove-avx-unaligned-erms.os)
 .eh_frame      0x0000000000003be8       0xb8 /home/j/Dokumente/GitHub/FreetimeOS/lfs/build-glibc/libc_pic.a(memmove-avx-unaligned-erms-rtm.os)
 .eh_frame      0x0000000000003ca0       0x68 /home/j/Dokumente/GitHub/FreetimeOS/lfs/build-glibc/libc_pic.a(memmove-avx512-no-vzeroupper.os)
 .eh_frame      0x0000000000003d08       0xb8 /home/j/Dokumente/GitHub/FreetimeOS/lfs/build-glibc/libc_pic.a(memmove-avx512-unaligned-erms.os)
 .eh_frame      0x0000000000003dc0       0x68 /home/j/Dokumente/GitHub/FreetimeOS/lfs/build-glibc/libc_pic.a(memmove-erms.os)
 .eh_frame      0x0000000000003e28       0xb8 /home/j/Dokumente/GitHub/FreetimeOS/lfs/build-glibc/libc_pic.a(memmove-evex-unaligned-erms.os)
 .eh_frame      0x0000000000003ee0       0xb8 /home/j/Dokumente/GitHub/FreetimeOS/lfs/build-glibc/libc_pic.a(memmove-sse2-unaligned-erms.os)
 .eh_frame      0x0000000000003f98       0x68 /home/j/Dokumente/GitHub/FreetimeOS/lfs/build-glibc/libc_pic.a(memmove-ssse3.os)
 .eh_frame      0x0000000000004000       0x90 /home/j/Dokumente/GitHub/FreetimeOS/lfs/build-glibc/libc_pic.a(memset-avx2-unaligned-erms.os)
 .eh_frame      0x0000000000004090       0x90 /home/j/Dokumente/GitHub/FreetimeOS/lfs/build-glibc/libc_pic.a(memset-avx2-unaligned-erms-rtm.os)
 .eh_frame      0x0000000000004120       0x40 /home/j/Dokumente/GitHub/FreetimeOS/lfs/build-glibc/libc_pic.a(memset-avx512-no-vzeroupper.os)
 .eh_frame      0x0000000000004160       0x90 /home/j/Dokumente/GitHub/FreetimeOS/lfs/build-glibc/libc_pic.a(memset-avx512-unaligned-erms.os)
 .eh_frame      0x00000000000041f0       0x40 /home/j/Dokumente/GitHub/FreetimeOS/lfs/build-glibc/libc_pic.a(memset-erms.os)
 .eh_frame      0x0000000000004230       0x90 /home/j/Dokumente/GitHub/FreetimeOS/lfs/build-glibc/libc_pic.a(memset-evex-unaligned-erms.os)
 .eh_frame      0x00000000000042c0       0x90 /home/j/Dokumente/GitHub/FreetimeOS/lfs/build-glibc/libc_pic.a(memset-sse2-unaligned-erms.os)
 .eh_frame      0x0000000000004350       0x30 /home/j/Dokumente/GitHub/FreetimeOS/lfs/build-glibc/libc_pic.a(stpcpy-avx2.os)
 .eh_frame      0x0000000000004380       0x30 /home/j/Dokumente/GitHub/FreetimeOS/lfs/build-glibc/libc_pic.a(stpcpy-avx2-rtm.os)
 .eh_frame      0x00000000000043b0       0x30 /home/j/Dokumente/GitHub/FreetimeOS/lfs/build-glibc/libc_pic.a(stpcpy-evex.os)
 .eh_frame      0x00000000000043e0       0x30 /home/j/Dokumente/GitHub/FreetimeOS/lfs/build-glibc/libc_pic.a(stpcpy-sse2.os)
 .eh_frame      0x0000000000004410       0x30 /home/j/Dokumente/GitHub/FreetimeOS/lfs/build-glibc/libc_pic.a(stpcpy-sse2-unaligned.os)
 .eh_frame      0x0000000000004440       0x30 /home/j/Dokumente/GitHub/FreetimeOS/lfs/build-glibc/libc_pic.a(strchr-avx2.os)
 .eh_frame      0x0000000000004470       0x30 /home/j/Dokumente/GitHub/FreetimeOS/lfs/build-glibc/libc_pic.a(strchr-avx2-rtm.os)
 .eh_frame      0x00000000000044a0       0x30 /home/j/Dokumente/GitHub/FreetimeOS/lfs/build-glibc/libc_pic.a(strchr-evex.os)
 .eh_frame      0x00000000000044d0       0x30 /home/j/Dokumente/GitHub/FreetimeOS/lfs/build-glibc/libc_pic.a(strchr-sse2.os)
 .eh_frame      0x0000000000004500       0x30 /home/j/Dokumente/GitHub/FreetimeOS/lfs/build-glibc/libc_pic.a(strchr-sse2-no-bsf.os)
 .eh_frame      0x0000000000004530       0x30 /home/j/Dokumente/GitHub/FreetimeOS/lfs/build-glibc/libc_pic.a(strcmp-avx2.os)
 .eh_frame      0x0000000000004560       0x30 /home/j/Dokumente/GitHub/FreetimeOS/lfs/build-glibc/libc_pic.a(strcmp-avx2-rtm.os)
 .eh_frame      0x0000000000004590       0x30 /home/j/Dokumente/GitHub/FreetimeOS/lfs/build-glibc/libc_pic.a(strcmp-evex.os)
 .eh_frame      0x00000000000045c0       0x30 /home/j/Dokumente/GitHub/FreetimeOS/lfs/build-glibc/libc_pic.a(strcmp-sse2.os)
 .eh_frame      0x00000000000045f0       0x30 /home/j/Dokumente/GitHub/FreetimeOS/lfs/build-glibc/libc_pic.a(strcmp-sse2-unaligned.os)
 .eh_frame      0x0000000000004620       0x30 /home/j/Dokumente/GitHub/FreetimeOS/lfs/build-glibc/libc_pic.a(strcmp-sse4_2.os)
 .eh_frame      0x0000000000004650       0x30 /home/j/Dokumente/GitHub/FreetimeOS/lfs/build-glibc/libc_pic.a(strcspn-sse4.os)
 .eh_frame      0x0000000000004680       0x30 /home/j/Dokumente/GitHub/FreetimeOS/lfs/build-glibc/libc_pic.a(strlen-avx2.os)
 .eh_frame      0x00000000000046b0       0x30 /home/j/Dokumente/GitHub/FreetimeOS/lfs/build-glibc/libc_pic.a(strlen-avx2-rtm.os)
 .eh_frame      0x00000000000046e0       0x30 /home/j/Dokumente/GitHub/FreetimeOS/lfs/build-glibc/libc_pic.a(strlen-evex.os)
 .eh_frame      0x0000000000004710       0x30 /home/j/Dokumente/GitHub/FreetimeOS/lfs/build-glibc/libc_pic.a(strlen-sse2.os)
 .eh_frame      0x0000000000004740       0x30 /home/j/Dokumente/GitHub/FreetimeOS/lfs/build-glibc/libc_pic.a(strncmp-avx2.os)
 .eh_frame      0x0000000000004770       0x30 /home/j/Dokumente/GitHub/FreetimeOS/lfs/build-glibc/libc_pic.a(strncmp-avx2-rtm.os)
 .eh_frame      0x00000000000047a0       0x30 /home/j/Dokumente/GitHub/FreetimeOS/lfs/build-glibc/libc_pic.a(strncmp-evex.os)
 .eh_frame      0x00000000000047d0       0x30 /home/j/Dokumente/GitHub/FreetimeOS/lfs/build-glibc/libc_pic.a(strncmp-sse2.os)
 .eh_frame      0x0000000000004800       0x30 /home/j/Dokumente/GitHub/FreetimeOS/lfs/build-glibc/libc_pic.a(strncmp-sse4_2.os)
 .eh_frame      0x0000000000004830       0x30 /home/j/Dokumente/GitHub/FreetimeOS/lfs/build-glibc/libc_pic.a(strnlen-avx2.os)
 .eh_frame      0x0000000000004860       0x30 /home/j/Dokumente/GitHub/FreetimeOS/lfs/build-glibc/libc_pic.a(strnlen-avx2-rtm.os)
 .eh_frame      0x0000000000004890       0x30 /home/j/Dokumente/GitHub/FreetimeOS/lfs/build-glibc/libc_pic.a(strnlen-evex.os)
 .eh_frame      0x00000000000048c0       0x30 /home/j/Dokumente/GitHub/FreetimeOS/lfs/build-glibc/libc_pic.a(strnlen-sse2.os)
 .eh_frame      0x00000000000048f0       0x50 /home/j/Dokumente/GitHub/FreetimeOS/lfs/build-glibc/libc_pic.a(strcspn-generic.os)
 .eh_frame      0x0000000000004940       0x40 /home/j/Dokumente/GitHub/FreetimeOS/lfs/build-glibc/libc_pic.a(cacheinfo.os)
 .eh_frame      0x0000000000004980       0x38 /home/j/Dokumente/GitHub/FreetimeOS/lfs/build-glibc/libc_pic.a(closedir.os)
 .eh_frame      0x00000000000049b8       0x50 /home/j/Dokumente/GitHub/FreetimeOS/lfs/build-glibc/libc_pic.a(rewinddir.os)
 .eh_frame      0x0000000000004a08       0x58 /home/j/Dokumente/GitHub/FreetimeOS/lfs/build-glibc/libc_pic.a(readdir64.os)
 .eh_frame      0x0000000000004a60       0x48 /home/j/Dokumente/GitHub/FreetimeOS/lfs/build-glibc/libc_pic.a(fdopendir.os)
 .eh_frame      0x0000000000004aa8       0x30 /home/j/Dokumente/GitHub/FreetimeOS/lfs/build-glibc/libc_pic.a(_exit.os)
 .eh_frame      0x0000000000004ad8       0x30 /home/j/Dokumente/GitHub/FreetimeOS/lfs/build-glibc/libc_pic.a(getpid.os)
 .eh_frame      0x0000000000004b08       0x30 /home/j/Dokumente/GitHub/FreetimeOS/lfs/build-glibc/libc_pic.a(uname.os)
 .eh_frame      0x0000000000004b38       0x30 /home/j/Dokumente/GitHub/FreetimeOS/lfs/build-glibc/libc_pic.a(access.os)
 .eh_frame      0x0000000000004b68       0x30 /home/j/Dokumente/GitHub/FreetimeOS/lfs/build-glibc/libc_pic.a(fstat64.os)
 .eh_frame      0x0000000000004b98       0x30 /home/j/Dokumente/GitHub/FreetimeOS/lfs/build-glibc/libc_pic.a(fstatat64.os)
 .eh_frame      0x0000000000004bc8       0x30 /home/j/Dokumente/GitHub/FreetimeOS/lfs/build-glibc/libc_pic.a(lseek64.os)
 .eh_frame      0x0000000000004bf8       0x30 /home/j/Dokumente/GitHub/FreetimeOS/lfs/build-glibc/libc_pic.a(lstat64.os)
 .eh_frame      0x0000000000004c28       0x40 /home/j/Dokumente/GitHub/FreetimeOS/lfs/build-glibc/libc_pic.a(openat64.os)
 .eh_frame      0x0000000000004c68       0x30 /home/j/Dokumente/GitHub/FreetimeOS/lfs/build-glibc/libc_pic.a(stat64.os)
 .eh_frame      0x0000000000004c98       0x30 /home/j/Dokumente/GitHub/FreetimeOS/lfs/build-glibc/libc_pic.a(close_nocancel.os)
 .eh_frame      0x0000000000004cc8       0x40 /home/j/Dokumente/GitHub/FreetimeOS/lfs/build-glibc/libc_pic.a(fcntl_nocancel.os)
 .eh_frame      0x0000000000004d08       0x30 /home/j/Dokumente/GitHub/FreetimeOS/lfs/build-glibc/libc_pic.a(open64_nocancel.os)
 .eh_frame      0x0000000000004d38       0x30 /home/j/Dokumente/GitHub/FreetimeOS/lfs/build-glibc/libc_pic.a(pread64_nocancel.os)
 .eh_frame      0x0000000000004d68       0x30 /home/j/Dokumente/GitHub/FreetimeOS/lfs/build-glibc/libc_pic.a(read_nocancel.os)
 .eh_frame      0x0000000000004d98       0x30 /home/j/Dokumente/GitHub/FreetimeOS/lfs/build-glibc/libc_pic.a(write_nocancel.os)
 .eh_frame      0x0000000000004dc8       0x48 /home/j/Dokumente/GitHub/FreetimeOS/lfs/build-glibc/libc_pic.a(mmap64.os)
 .eh_frame      0x0000000000004e10       0x30 /home/j/Dokumente/GitHub/FreetimeOS/lfs/build-glibc/libc_pic.a(mprotect.os)
 .eh_frame      0x0000000000004e40       0x30 /home/j/Dokumente/GitHub/FreetimeOS/lfs/build-glibc/libc_pic.a(munmap.os)
 .eh_frame      0x0000000000004e70       0x58 /home/j/Dokumente/GitHub/FreetimeOS/lfs/build-glibc/libc_pic.a(setvmaname.os)
 .eh_frame      0x0000000000004ec8       0x88 /home/j/Dokumente/GitHub/FreetimeOS/lfs/build-glibc/libc_pic.a(profil.os)
 .eh_frame      0x0000000000004f50       0x30 /home/j/Dokumente/GitHub/FreetimeOS/lfs/build-glibc/libc_pic.a(prof-freq.os)
 .eh_frame      0x0000000000004f80       0x30 /home/j/Dokumente/GitHub/FreetimeOS/lfs/build-glibc/libc_pic.a(dl-addr-obj.os)
 .eh_frame      0x0000000000004fb0       0x30 /home/j/Dokumente/GitHub/FreetimeOS/lfs/build-glibc/libc_pic.a(sigaction.os)
 .eh_frame      0x0000000000004fe0       0xc8 /home/j/Dokumente/GitHub/FreetimeOS/lfs/build-glibc/libc_pic.a(libc_sigaction.os)
                                         0xd0 (size before relaxing)
 .eh_frame      0x00000000000050a8       0x30 /home/j/Dokumente/GitHub/FreetimeOS/lfs/build-glibc/libc_pic.a(errname.os)
 .eh_frame      0x00000000000050d8       0x30 /home/j/Dokumente/GitHub/FreetimeOS/lfs/build-glibc/libc_pic.a(strchrnul.os)
 .eh_frame      0x0000000000005108       0x30 /home/j/Dokumente/GitHub/FreetimeOS/lfs/build-glibc/libc_pic.a(strchrnul-avx2.os)
 .eh_frame      0x0000000000005138       0x30 /home/j/Dokumente/GitHub/FreetimeOS/lfs/build-glibc/libc_pic.a(strchrnul-avx2-rtm.os)
 .eh_frame      0x0000000000005168       0x30 /home/j/Dokumente/GitHub/FreetimeOS/lfs/build-glibc/libc_pic.a(strchrnul-evex.os)
 .eh_frame      0x0000000000005198       0x30 /home/j/Dokumente/GitHub/FreetimeOS/lfs/build-glibc/libc_pic.a(strchrnul-sse2.os)
 .eh_frame      0x00000000000051c8       0x30 /home/j/Dokumente/GitHub/FreetimeOS/lfs/build-glibc/libc_pic.a(setitimer.os)
 .eh_frame      0x00000000000051f8       0x2c /home/j/Dokumente/GitHub/FreetimeOS/lfs/build-glibc/libc_pic.a(getdents64.os)
                                         0x30 (size before relaxing)

.sframe
 *(.sframe)

.gcc_except_table
 *(.gcc_except_table)

.gnu_extab
 *(.gnu_extab*)

.exception_ranges
 *(.exception_ranges)

.eh_frame
 *(.eh_frame)

.sframe
 *(.sframe)

.gnu_extab
 *(.gnu_extab)

.gcc_except_table
 *(.gcc_except_table)

.exception_ranges
 *(.exception_ranges)

.tdata
 *(.tdata)

.tbss           0x0000000000000000        0x4
 *(.tbss)
 .tbss          0x0000000000000000        0x4 /home/j/Dokumente/GitHub/FreetimeOS/lfs/build-glibc/libc_pic.a(errno.os)
                0x0000000000000000                errno
                0x0000000000000000                __libc_errno

.jcr
 *(.jcr)

.dynamic
 *(.dynamic)

.got
 *(.got)

.got.plt
 *(.got.plt)

.data           0x0000000000000000     0x1134
 *(.data)
 .data          0x0000000000000000        0x0 /home/j/Dokumente/GitHub/FreetimeOS/lfs/build-glibc/elf/librtld.mapT.o
 .data          0x0000000000000000     0x1100 /home/j/Dokumente/GitHub/FreetimeOS/lfs/build-glibc/elf/dl-allobjs.os
                0x0000000000000000                _rtld_global
                0x0000000000000000                _rtld_local
 .data          0x0000000000001100        0x0 /home/j/Dokumente/GitHub/FreetimeOS/lfs/build-glibc/libc_pic.a(check_fds.os)
 .data          0x0000000000001100        0x0 /home/j/Dokumente/GitHub/FreetimeOS/lfs/build-glibc/libc_pic.a(errno.os)
 .data          0x0000000000001100        0x0 /home/j/Dokumente/GitHub/FreetimeOS/lfs/build-glibc/libc_pic.a(setjmp.os)
 .data          0x0000000000001100        0x0 /home/j/Dokumente/GitHub/FreetimeOS/lfs/build-glibc/libc_pic.a(__longjmp.os)
 .data          0x0000000000001100        0x0 /home/j/Dokumente/GitHub/FreetimeOS/lfs/build-glibc/libc_pic.a(lowlevellock.os)
 .data          0x0000000000001100        0x0 /home/j/Dokumente/GitHub/FreetimeOS/lfs/build-glibc/libc_pic.a(scratch_buffer_set_array_size.os)
 .data          0x0000000000001100        0x0 /home/j/Dokumente/GitHub/FreetimeOS/lfs/build-glibc/libc_pic.a(memchr.os)
 .data          0x0000000000001100        0x0 /home/j/Dokumente/GitHub/FreetimeOS/lfs/build-glibc/libc_pic.a(memcmp.os)
 .data          0x0000000000001100        0x0 /home/j/Dokumente/GitHub/FreetimeOS/lfs/build-glibc/libc_pic.a(memcpy.os)
 .data          0x0000000000001100        0x0 /home/j/Dokumente/GitHub/FreetimeOS/lfs/build-glibc/libc_pic.a(memmove.os)
 .data          0x0000000000001100        0x0 /home/j/Dokumente/GitHub/FreetimeOS/lfs/build-glibc/libc_pic.a(mempcpy.os)
 .data          0x0000000000001100        0x0 /home/j/Dokumente/GitHub/FreetimeOS/lfs/build-glibc/libc_pic.a(memset.os)
 .data          0x0000000000001100        0x0 /home/j/Dokumente/GitHub/FreetimeOS/lfs/build-glibc/libc_pic.a(stpcpy.os)
 .data          0x0000000000001100        0x0 /home/j/Dokumente/GitHub/FreetimeOS/lfs/build-glibc/libc_pic.a(strchr.os)
 .data          0x0000000000001100        0x0 /home/j/Dokumente/GitHub/FreetimeOS/lfs/build-glibc/libc_pic.a(strcmp.os)
 .data          0x0000000000001100        0x0 /home/j/Dokumente/GitHub/FreetimeOS/lfs/build-glibc/libc_pic.a(strcspn.os)
 .data          0x0000000000001100        0x0 /home/j/Dokumente/GitHub/FreetimeOS/lfs/build-glibc/libc_pic.a(strdup.os)
 .data          0x0000000000001100        0x0 /home/j/Dokumente/GitHub/FreetimeOS/lfs/build-glibc/libc_pic.a(strerrorname_np.os)
 .data          0x0000000000001100        0x0 /home/j/Dokumente/GitHub/FreetimeOS/lfs/build-glibc/libc_pic.a(strlen.os)
 .data          0x0000000000001100        0x0 /home/j/Dokumente/GitHub/FreetimeOS/lfs/build-glibc/libc_pic.a(strncmp.os)
 .data          0x0000000000001100        0x0 /home/j/Dokumente/GitHub/FreetimeOS/lfs/build-glibc/libc_pic.a(strnlen.os)
 .data          0x0000000000001100        0x0 /home/j/Dokumente/GitHub/FreetimeOS/lfs/build-glibc/libc_pic.a(memchr-avx2.os)
 .data          0x0000000000001100        0x0 /home/j/Dokumente/GitHub/FreetimeOS/lfs/build-glibc/libc_pic.a(memchr-avx2-rtm.os)
 .data          0x0000000000001100        0x0 /home/j/Dokumente/GitHub/FreetimeOS/lfs/build-glibc/libc_pic.a(memchr-evex.os)
 .data          0x0000000000001100        0x0 /home/j/Dokumente/GitHub/FreetimeOS/lfs/build-glibc/libc_pic.a(memchr-evex-rtm.os)
 .data          0x0000000000001100        0x0 /home/j/Dokumente/GitHub/FreetimeOS/lfs/build-glibc/libc_pic.a(memchr-sse2.os)
 .data          0x0000000000001100        0x0 /home/j/Dokumente/GitHub/FreetimeOS/lfs/build-glibc/libc_pic.a(memcmp-avx2-movbe.os)
 .data          0x0000000000001100        0x0 /home/j/Dokumente/GitHub/FreetimeOS/lfs/build-glibc/libc_pic.a(memcmp-avx2-movbe-rtm.os)
 .data          0x0000000000001100        0x0 /home/j/Dokumente/GitHub/FreetimeOS/lfs/build-glibc/libc_pic.a(memcmp-evex-movbe.os)
 .data          0x0000000000001100        0x0 /home/j/Dokumente/GitHub/FreetimeOS/lfs/build-glibc/libc_pic.a(memcmp-sse2.os)
 .data          0x0000000000001100        0x0 /home/j/Dokumente/GitHub/FreetimeOS/lfs/build-glibc/libc_pic.a(memmove-avx-unaligned-erms.os)
 .data          0x0000000000001100        0x0 /home/j/Dokumente/GitHub/FreetimeOS/lfs/build-glibc/libc_pic.a(memmove-avx-unaligned-erms-rtm.os)
 .data          0x0000000000001100        0x0 /home/j/Dokumente/GitHub/FreetimeOS/lfs/build-glibc/libc_pic.a(memmove-avx512-no-vzeroupper.os)
 .data          0x0000000000001100        0x0 /home/j/Dokumente/GitHub/FreetimeOS/lfs/build-glibc/libc_pic.a(memmove-avx512-unaligned-erms.os)
 .data          0x0000000000001100        0x0 /home/j/Dokumente/GitHub/FreetimeOS/lfs/build-glibc/libc_pic.a(memmove-erms.os)
 .data          0x0000000000001100        0x0 /home/j/Dokumente/GitHub/FreetimeOS/lfs/build-glibc/libc_pic.a(memmove-evex-unaligned-erms.os)
 .data          0x0000000000001100        0x0 /home/j/Dokumente/GitHub/FreetimeOS/lfs/build-glibc/libc_pic.a(memmove-sse2-unaligned-erms.os)
 .data          0x0000000000001100        0x0 /home/j/Dokumente/GitHub/FreetimeOS/lfs/build-glibc/libc_pic.a(memmove-ssse3.os)
 .data          0x0000000000001100        0x0 /home/j/Dokumente/GitHub/FreetimeOS/lfs/build-glibc/libc_pic.a(memset-avx2-unaligned-erms.os)
 .data          0x0000000000001100        0x0 /home/j/Dokumente/GitHub/FreetimeOS/lfs/build-glibc/libc_pic.a(memset-avx2-unaligned-erms-rtm.os)
 .data          0x0000000000001100        0x0 /home/j/Dokumente/GitHub/FreetimeOS/lfs/build-glibc/libc_pic.a(memset-avx512-no-vzeroupper.os)
 .data          0x0000000000001100        0x0 /home/j/Dokumente/GitHub/FreetimeOS/lfs/build-glibc/libc_pic.a(memset-avx512-unaligned-erms.os)
 .data          0x0000000000001100        0x0 /home/j/Dokumente/GitHub/FreetimeOS/lfs/build-glibc/libc_pic.a(memset-erms.os)
 .data          0x0000000000001100        0x0 /home/j/Dokumente/GitHub/FreetimeOS/lfs/build-glibc/libc_pic.a(memset-evex-unaligned-erms.os)
 .data          0x0000000000001100        0x0 /home/j/Dokumente/GitHub/FreetimeOS/lfs/build-glibc/libc_pic.a(memset-sse2-unaligned-erms.os)
 .data          0x0000000000001100        0x0 /home/j/Dokumente/GitHub/FreetimeOS/lfs/build-glibc/libc_pic.a(stpcpy-avx2.os)
 .data          0x0000000000001100        0x0 /home/j/Dokumente/GitHub/FreetimeOS/lfs/build-glibc/libc_pic.a(stpcpy-avx2-rtm.os)
 .data          0x0000000000001100        0x0 /home/j/Dokumente/GitHub/FreetimeOS/lfs/build-glibc/libc_pic.a(stpcpy-evex.os)
 .data          0x0000000000001100        0x0 /home/j/Dokumente/GitHub/FreetimeOS/lfs/build-glibc/libc_pic.a(stpcpy-sse2.os)
 .data          0x0000000000001100        0x0 /home/j/Dokumente/GitHub/FreetimeOS/lfs/build-glibc/libc_pic.a(stpcpy-sse2-unaligned.os)
 .data          0x0000000000001100        0x0 /home/j/Dokumente/GitHub/FreetimeOS/lfs/build-glibc/libc_pic.a(strchr-avx2.os)
 .data          0x0000000000001100        0x0 /home/j/Dokumente/GitHub/FreetimeOS/lfs/build-glibc/libc_pic.a(strchr-avx2-rtm.os)
 .data          0x0000000000001100        0x0 /home/j/Dokumente/GitHub/FreetimeOS/lfs/build-glibc/libc_pic.a(strchr-evex.os)
 .data          0x0000000000001100        0x0 /home/j/Dokumente/GitHub/FreetimeOS/lfs/build-glibc/libc_pic.a(strchr-sse2.os)
 .data          0x0000000000001100        0x0 /home/j/Dokumente/GitHub/FreetimeOS/lfs/build-glibc/libc_pic.a(strchr-sse2-no-bsf.os)
 .data          0x0000000000001100        0x0 /home/j/Dokumente/GitHub/FreetimeOS/lfs/build-glibc/libc_pic.a(strcmp-avx2.os)
 .data          0x0000000000001100        0x0 /home/j/Dokumente/GitHub/FreetimeOS/lfs/build-glibc/libc_pic.a(strcmp-avx2-rtm.os)
 .data          0x0000000000001100        0x0 /home/j/Dokumente/GitHub/FreetimeOS/lfs/build-glibc/libc_pic.a(strcmp-evex.os)
 .data          0x0000000000001100        0x0 /home/j/Dokumente/GitHub/FreetimeOS/lfs/build-glibc/libc_pic.a(strcmp-sse2.os)
 .data          0x0000000000001100        0x0 /home/j/Dokumente/GitHub/FreetimeOS/lfs/build-glibc/libc_pic.a(strcmp-sse2-unaligned.os)
 .data          0x0000000000001100        0x0 /home/j/Dokumente/GitHub/FreetimeOS/lfs/build-glibc/libc_pic.a(strcmp-sse4_2.os)
 .data          0x0000000000001100        0x0 /home/j/Dokumente/GitHub/FreetimeOS/lfs/build-glibc/libc_pic.a(strcspn-sse4.os)
 .data          0x0000000000001100        0x0 /home/j/Dokumente/GitHub/FreetimeOS/lfs/build-glibc/libc_pic.a(strlen-avx2.os)
 .data          0x0000000000001100        0x0 /home/j/Dokumente/GitHub/FreetimeOS/lfs/build-glibc/libc_pic.a(strlen-avx2-rtm.os)
 .data          0x0000000000001100        0x0 /home/j/Dokumente/GitHub/FreetimeOS/lfs/build-glibc/libc_pic.a(strlen-evex.os)
 .data          0x0000000000001100        0x0 /home/j/Dokumente/GitHub/FreetimeOS/lfs/build-glibc/libc_pic.a(strlen-sse2.os)
 .data          0x0000000000001100        0x0 /home/j/Dokumente/GitHub/FreetimeOS/lfs/build-glibc/libc_pic.a(strncmp-avx2.os)
 .data          0x0000000000001100        0x0 /home/j/Dokumente/GitHub/FreetimeOS/lfs/build-glibc/libc_pic.a(strncmp-avx2-rtm.os)
 .data          0x0000000000001100        0x0 /home/j/Dokumente/GitHub/FreetimeOS/lfs/build-glibc/libc_pic.a(strncmp-evex.os)
 .data          0x0000000000001100        0x0 /home/j/Dokumente/GitHub/FreetimeOS/lfs/build-glibc/libc_pic.a(strncmp-sse2.os)
 .data          0x0000000000001100        0x0 /home/j/Dokumente/GitHub/FreetimeOS/lfs/build-glibc/libc_pic.a(strncmp-sse4_2.os)
 .data          0x0000000000001100        0x0 /home/j/Dokumente/GitHub/FreetimeOS/lfs/build-glibc/libc_pic.a(strnlen-avx2.os)
 .data          0x0000000000001100        0x0 /home/j/Dokumente/GitHub/FreetimeOS/lfs/build-glibc/libc_pic.a(strnlen-avx2-rtm.os)
 .data          0x0000000000001100        0x0 /home/j/Dokumente/GitHub/FreetimeOS/lfs/build-glibc/libc_pic.a(strnlen-evex.os)
 .data          0x0000000000001100        0x0 /home/j/Dokumente/GitHub/FreetimeOS/lfs/build-glibc/libc_pic.a(strnlen-sse2.os)
 .data          0x0000000000001100        0x0 /home/j/Dokumente/GitHub/FreetimeOS/lfs/build-glibc/libc_pic.a(varshift.os)
 .data          0x0000000000001100        0x0 /home/j/Dokumente/GitHub/FreetimeOS/lfs/build-glibc/libc_pic.a(strcspn-generic.os)
 .data          0x0000000000001100       0x30 /home/j/Dokumente/GitHub/FreetimeOS/lfs/build-glibc/libc_pic.a(cacheinfo.os)
                0x0000000000001100                __x86_rep_stosb_threshold
                0x0000000000001108                __x86_rep_movsb_threshold
                0x0000000000001110                __x86_shared_cache_size
                0x0000000000001118                __x86_shared_cache_size_half
                0x0000000000001120                __x86_data_cache_size
                0x0000000000001128                __x86_data_cache_size_half
 .data          0x0000000000001130        0x0 /home/j/Dokumente/GitHub/FreetimeOS/lfs/build-glibc/libc_pic.a(closedir.os)
 .data          0x0000000000001130        0x0 /home/j/Dokumente/GitHub/FreetimeOS/lfs/build-glibc/libc_pic.a(rewinddir.os)
 .data          0x0000000000001130        0x0 /home/j/Dokumente/GitHub/FreetimeOS/lfs/build-glibc/libc_pic.a(readdir64.os)
 .data          0x0000000000001130        0x0 /home/j/Dokumente/GitHub/FreetimeOS/lfs/build-glibc/libc_pic.a(fdopendir.os)
 .data          0x0000000000001130        0x0 /home/j/Dokumente/GitHub/FreetimeOS/lfs/build-glibc/libc_pic.a(_exit.os)
 .data          0x0000000000001130        0x0 /home/j/Dokumente/GitHub/FreetimeOS/lfs/build-glibc/libc_pic.a(getpid.os)
 .data          0x0000000000001130        0x0 /home/j/Dokumente/GitHub/FreetimeOS/lfs/build-glibc/libc_pic.a(uname.os)
 .data          0x0000000000001130        0x0 /home/j/Dokumente/GitHub/FreetimeOS/lfs/build-glibc/libc_pic.a(environ.os)
 .data          0x0000000000001130        0x0 /home/j/Dokumente/GitHub/FreetimeOS/lfs/build-glibc/libc_pic.a(access.os)
 .data          0x0000000000001130        0x0 /home/j/Dokumente/GitHub/FreetimeOS/lfs/build-glibc/libc_pic.a(fstat64.os)
 .data          0x0000000000001130        0x0 /home/j/Dokumente/GitHub/FreetimeOS/lfs/build-glibc/libc_pic.a(fstatat64.os)
 .data          0x0000000000001130        0x0 /home/j/Dokumente/GitHub/FreetimeOS/lfs/build-glibc/libc_pic.a(lseek64.os)
 .data          0x0000000000001130        0x0 /home/j/Dokumente/GitHub/FreetimeOS/lfs/build-glibc/libc_pic.a(lstat64.os)
 .data          0x0000000000001130        0x0 /home/j/Dokumente/GitHub/FreetimeOS/lfs/build-glibc/libc_pic.a(openat64.os)
 .data          0x0000000000001130        0x0 /home/j/Dokumente/GitHub/FreetimeOS/lfs/build-glibc/libc_pic.a(stat64.os)
 .data          0x0000000000001130        0x0 /home/j/Dokumente/GitHub/FreetimeOS/lfs/build-glibc/libc_pic.a(close_nocancel.os)
 .data          0x0000000000001130        0x0 /home/j/Dokumente/GitHub/FreetimeOS/lfs/build-glibc/libc_pic.a(fcntl_nocancel.os)
 .data          0x0000000000001130        0x0 /home/j/Dokumente/GitHub/FreetimeOS/lfs/build-glibc/libc_pic.a(open64_nocancel.os)
 .data          0x0000000000001130        0x0 /home/j/Dokumente/GitHub/FreetimeOS/lfs/build-glibc/libc_pic.a(pread64_nocancel.os)
 .data          0x0000000000001130        0x0 /home/j/Dokumente/GitHub/FreetimeOS/lfs/build-glibc/libc_pic.a(read_nocancel.os)
 .data          0x0000000000001130        0x0 /home/j/Dokumente/GitHub/FreetimeOS/lfs/build-glibc/libc_pic.a(write_nocancel.os)
 .data          0x0000000000001130        0x0 /home/j/Dokumente/GitHub/FreetimeOS/lfs/build-glibc/libc_pic.a(mmap64.os)
 .data          0x0000000000001130        0x0 /home/j/Dokumente/GitHub/FreetimeOS/lfs/build-glibc/libc_pic.a(mprotect.os)
 .data          0x0000000000001130        0x0 /home/j/Dokumente/GitHub/FreetimeOS/lfs/build-glibc/libc_pic.a(munmap.os)
 .data          0x0000000000001130        0x0 /home/j/Dokumente/GitHub/FreetimeOS/lfs/build-glibc/libc_pic.a(single_threaded.os)
 .data          0x0000000000001130        0x4 /home/j/Dokumente/GitHub/FreetimeOS/lfs/build-glibc/libc_pic.a(setvmaname.os)
 .data          0x0000000000001134        0x0 /home/j/Dokumente/GitHub/FreetimeOS/lfs/build-glibc/libc_pic.a(profil.os)
 .data          0x0000000000001134        0x0 /home/j/Dokumente/GitHub/FreetimeOS/lfs/build-glibc/libc_pic.a(prof-freq.os)
 .data          0x0000000000001134        0x0 /home/j/Dokumente/GitHub/FreetimeOS/lfs/build-glibc/libc_pic.a(dl-addr-obj.os)
 .data          0x0000000000001134        0x0 /home/j/Dokumente/GitHub/FreetimeOS/lfs/build-glibc/libc_pic.a(sigaction.os)
 .data          0x0000000000001134        0x0 /home/j/Dokumente/GitHub/FreetimeOS/lfs/build-glibc/libc_pic.a(libc_sigaction.os)
 .data          0x0000000000001134        0x0 /home/j/Dokumente/GitHub/FreetimeOS/lfs/build-glibc/libc_pic.a(errname.os)
 .data          0x0000000000001134        0x0 /home/j/Dokumente/GitHub/FreetimeOS/lfs/build-glibc/libc_pic.a(strchrnul.os)
 .data          0x0000000000001134        0x0 /home/j/Dokumente/GitHub/FreetimeOS/lfs/build-glibc/libc_pic.a(strchrnul-avx2.os)
 .data          0x0000000000001134        0x0 /home/j/Dokumente/GitHub/FreetimeOS/lfs/build-glibc/libc_pic.a(strchrnul-avx2-rtm.os)
 .data          0x0000000000001134        0x0 /home/j/Dokumente/GitHub/FreetimeOS/lfs/build-glibc/libc_pic.a(strchrnul-evex.os)
 .data          0x0000000000001134        0x0 /home/j/Dokumente/GitHub/FreetimeOS/lfs/build-glibc/libc_pic.a(strchrnul-sse2.os)
 .data          0x0000000000001134        0x0 /home/j/Dokumente/GitHub/FreetimeOS/lfs/build-glibc/libc_pic.a(setitimer.os)
 .data          0x0000000000001134        0x0 /home/j/Dokumente/GitHub/FreetimeOS/lfs/build-glibc/libc_pic.a(getdents64.os)

.data.rel.ro    0x0000000000000000     0x1aa8
 .data.rel.ro   0x0000000000000000     0x1aa8 /home/j/Dokumente/GitHub/FreetimeOS/lfs/build-glibc/elf/dl-allobjs.os
                0x0000000000000040                __rtld_search_dirs
                0x0000000000000070                __rtld_env_path_list
                0x0000000000000080                __stack_prot
                0x0000000000000088                __rseq_offset
                0x0000000000000090                __rseq_size
                0x0000000000001668                __rtld_realloc
                0x0000000000001670                __rtld_malloc
                0x0000000000001678                __rtld_free
                0x0000000000001680                __rtld_calloc
                0x0000000000001688                ___rtld_mutex_unlock
                0x0000000000001690                ___rtld_mutex_lock
                0x0000000000001698                _dl_random
                0x00000000000016a0                __libc_stack_end
                0x00000000000016a0                __GI___libc_stack_end
                0x00000000000016a8                __GI___libc_enable_secure
                0x00000000000016a8                __libc_enable_secure
                0x00000000000016d0                __pointer_chk_guard_local
                0x00000000000016d8                __GI__dl_argv
                0x00000000000016d8                _dl_argv
                0x00000000000016e0                _dl_argc
                0x0000000000001700                _rtld_global_ro
                0x0000000000001700                _rtld_local_ro

.data.rel.ro.local
                0x0000000000000000       0x30
 .data.rel.ro.local
                0x0000000000000000       0x28 /home/j/Dokumente/GitHub/FreetimeOS/lfs/build-glibc/elf/dl-allobjs.os
                0x0000000000000000                __x86_cpu_features_p
 .data.rel.ro.local
                0x0000000000000028        0x8 /home/j/Dokumente/GitHub/FreetimeOS/lfs/build-glibc/libc_pic.a(cacheinfo.os)
                0x0000000000000028                __x86_cacheinfo_p

.data1
 *(.data1)

.bss            0x0000000000000000      0x2a0
 *(.bss)
 .bss           0x0000000000000000        0x0 /home/j/Dokumente/GitHub/FreetimeOS/lfs/build-glibc/elf/librtld.mapT.o
 .bss           0x0000000000000000      0x190 /home/j/Dokumente/GitHub/FreetimeOS/lfs/build-glibc/elf/dl-allobjs.os
                0x0000000000000018                _r_debug_extended
                0x0000000000000018                _r_debug
                0x0000000000000090                __nptl_initial_report_events
                0x0000000000000090                __GI___nptl_initial_report_events
                0x00000000000000c8                _dl_hwcaps_priorities_length
                0x00000000000000d0                _dl_hwcaps_priorities
                0x0000000000000120                __rtld_tls_init_tp_called
                0x0000000000000188                __curbrk
 .bss           0x0000000000000190        0x0 /home/j/Dokumente/GitHub/FreetimeOS/lfs/build-glibc/libc_pic.a(check_fds.os)
 .bss           0x0000000000000190        0x0 /home/j/Dokumente/GitHub/FreetimeOS/lfs/build-glibc/libc_pic.a(errno.os)
 .bss           0x0000000000000190        0x0 /home/j/Dokumente/GitHub/FreetimeOS/lfs/build-glibc/libc_pic.a(setjmp.os)
 .bss           0x0000000000000190        0x0 /home/j/Dokumente/GitHub/FreetimeOS/lfs/build-glibc/libc_pic.a(__longjmp.os)
 .bss           0x0000000000000190        0x4 /home/j/Dokumente/GitHub/FreetimeOS/lfs/build-glibc/libc_pic.a(lowlevellock.os)
                0x0000000000000190                __GI___pthread_force_elision
                0x0000000000000190                __pthread_force_elision
 .bss           0x0000000000000194        0x0 /home/j/Dokumente/GitHub/FreetimeOS/lfs/build-glibc/libc_pic.a(scratch_buffer_set_array_size.os)
 .bss           0x0000000000000194        0x0 /home/j/Dokumente/GitHub/FreetimeOS/lfs/build-glibc/libc_pic.a(memchr.os)
 .bss           0x0000000000000194        0x0 /home/j/Dokumente/GitHub/FreetimeOS/lfs/build-glibc/libc_pic.a(memcmp.os)
 .bss           0x0000000000000194        0x0 /home/j/Dokumente/GitHub/FreetimeOS/lfs/build-glibc/libc_pic.a(memcpy.os)
 .bss           0x0000000000000194        0x0 /home/j/Dokumente/GitHub/FreetimeOS/lfs/build-glibc/libc_pic.a(memmove.os)
 .bss           0x0000000000000194        0x0 /home/j/Dokumente/GitHub/FreetimeOS/lfs/build-glibc/libc_pic.a(mempcpy.os)
 .bss           0x0000000000000194        0x0 /home/j/Dokumente/GitHub/FreetimeOS/lfs/build-glibc/libc_pic.a(memset.os)
 .bss           0x0000000000000194        0x0 /home/j/Dokumente/GitHub/FreetimeOS/lfs/build-glibc/libc_pic.a(stpcpy.os)
 .bss           0x0000000000000194        0x0 /home/j/Dokumente/GitHub/FreetimeOS/lfs/build-glibc/libc_pic.a(strchr.os)
 .bss           0x0000000000000194        0x0 /home/j/Dokumente/GitHub/FreetimeOS/lfs/build-glibc/libc_pic.a(strcmp.os)
 .bss           0x0000000000000194        0x0 /home/j/Dokumente/GitHub/FreetimeOS/lfs/build-glibc/libc_pic.a(strcspn.os)
 .bss           0x0000000000000194        0x0 /home/j/Dokumente/GitHub/FreetimeOS/lfs/build-glibc/libc_pic.a(strdup.os)
 .bss           0x0000000000000194        0x0 /home/j/Dokumente/GitHub/FreetimeOS/lfs/build-glibc/libc_pic.a(strerrorname_np.os)
 .bss           0x0000000000000194        0x0 /home/j/Dokumente/GitHub/FreetimeOS/lfs/build-glibc/libc_pic.a(strlen.os)
 .bss           0x0000000000000194        0x0 /home/j/Dokumente/GitHub/FreetimeOS/lfs/build-glibc/libc_pic.a(strncmp.os)
 .bss           0x0000000000000194        0x0 /home/j/Dokumente/GitHub/FreetimeOS/lfs/build-glibc/libc_pic.a(strnlen.os)
 .bss           0x0000000000000194        0x0 /home/j/Dokumente/GitHub/FreetimeOS/lfs/build-glibc/libc_pic.a(memchr-avx2.os)
 .bss           0x0000000000000194        0x0 /home/j/Dokumente/GitHub/FreetimeOS/lfs/build-glibc/libc_pic.a(memchr-avx2-rtm.os)
 .bss           0x0000000000000194        0x0 /home/j/Dokumente/GitHub/FreetimeOS/lfs/build-glibc/libc_pic.a(memchr-evex.os)
 .bss           0x0000000000000194        0x0 /home/j/Dokumente/GitHub/FreetimeOS/lfs/build-glibc/libc_pic.a(memchr-evex-rtm.os)
 .bss           0x0000000000000194        0x0 /home/j/Dokumente/GitHub/FreetimeOS/lfs/build-glibc/libc_pic.a(memchr-sse2.os)
 .bss           0x0000000000000194        0x0 /home/j/Dokumente/GitHub/FreetimeOS/lfs/build-glibc/libc_pic.a(memcmp-avx2-movbe.os)
 .bss           0x0000000000000194        0x0 /home/j/Dokumente/GitHub/FreetimeOS/lfs/build-glibc/libc_pic.a(memcmp-avx2-movbe-rtm.os)
 .bss           0x0000000000000194        0x0 /home/j/Dokumente/GitHub/FreetimeOS/lfs/build-glibc/libc_pic.a(memcmp-evex-movbe.os)
 .bss           0x0000000000000194        0x0 /home/j/Dokumente/GitHub/FreetimeOS/lfs/build-glibc/libc_pic.a(memcmp-sse2.os)
 .bss           0x0000000000000194        0x0 /home/j/Dokumente/GitHub/FreetimeOS/lfs/build-glibc/libc_pic.a(memmove-avx-unaligned-erms.os)
 .bss           0x0000000000000194        0x0 /home/j/Dokumente/GitHub/FreetimeOS/lfs/build-glibc/libc_pic.a(memmove-avx-unaligned-erms-rtm.os)
 .bss           0x0000000000000194        0x0 /home/j/Dokumente/GitHub/FreetimeOS/lfs/build-glibc/libc_pic.a(memmove-avx512-no-vzeroupper.os)
 .bss           0x0000000000000194        0x0 /home/j/Dokumente/GitHub/FreetimeOS/lfs/build-glibc/libc_pic.a(memmove-avx512-unaligned-erms.os)
 .bss           0x0000000000000194        0x0 /home/j/Dokumente/GitHub/FreetimeOS/lfs/build-glibc/libc_pic.a(memmove-erms.os)
 .bss           0x0000000000000194        0x0 /home/j/Dokumente/GitHub/FreetimeOS/lfs/build-glibc/libc_pic.a(memmove-evex-unaligned-erms.os)
 .bss           0x0000000000000194        0x0 /home/j/Dokumente/GitHub/FreetimeOS/lfs/build-glibc/libc_pic.a(memmove-sse2-unaligned-erms.os)
 .bss           0x0000000000000194        0x0 /home/j/Dokumente/GitHub/FreetimeOS/lfs/build-glibc/libc_pic.a(memmove-ssse3.os)
 .bss           0x0000000000000194        0x0 /home/j/Dokumente/GitHub/FreetimeOS/lfs/build-glibc/libc_pic.a(memset-avx2-unaligned-erms.os)
 .bss           0x0000000000000194        0x0 /home/j/Dokumente/GitHub/FreetimeOS/lfs/build-glibc/libc_pic.a(memset-avx2-unaligned-erms-rtm.os)
 .bss           0x0000000000000194        0x0 /home/j/Dokumente/GitHub/FreetimeOS/lfs/build-glibc/libc_pic.a(memset-avx512-no-vzeroupper.os)
 .bss           0x0000000000000194        0x0 /home/j/Dokumente/GitHub/FreetimeOS/lfs/build-glibc/libc_pic.a(memset-avx512-unaligned-erms.os)
 .bss           0x0000000000000194        0x0 /home/j/Dokumente/GitHub/FreetimeOS/lfs/build-glibc/libc_pic.a(memset-erms.os)
 .bss           0x0000000000000194        0x0 /home/j/Dokumente/GitHub/FreetimeOS/lfs/build-glibc/libc_pic.a(memset-evex-unaligned-erms.os)
 .bss           0x0000000000000194        0x0 /home/j/Dokumente/GitHub/FreetimeOS/lfs/build-glibc/libc_pic.a(memset-sse2-unaligned-erms.os)
 .bss           0x0000000000000194        0x0 /home/j/Dokumente/GitHub/FreetimeOS/lfs/build-glibc/libc_pic.a(stpcpy-avx2.os)
 .bss           0x0000000000000194        0x0 /home/j/Dokumente/GitHub/FreetimeOS/lfs/build-glibc/libc_pic.a(stpcpy-avx2-rtm.os)
 .bss           0x0000000000000194        0x0 /home/j/Dokumente/GitHub/FreetimeOS/lfs/build-glibc/libc_pic.a(stpcpy-evex.os)
 .bss           0x0000000000000194        0x0 /home/j/Dokumente/GitHub/FreetimeOS/lfs/build-glibc/libc_pic.a(stpcpy-sse2.os)
 .bss           0x0000000000000194        0x0 /home/j/Dokumente/GitHub/FreetimeOS/lfs/build-glibc/libc_pic.a(stpcpy-sse2-unaligned.os)
 .bss           0x0000000000000194        0x0 /home/j/Dokumente/GitHub/FreetimeOS/lfs/build-glibc/libc_pic.a(strchr-avx2.os)
 .bss           0x0000000000000194        0x0 /home/j/Dokumente/GitHub/FreetimeOS/lfs/build-glibc/libc_pic.a(strchr-avx2-rtm.os)
 .bss           0x0000000000000194        0x0 /home/j/Dokumente/GitHub/FreetimeOS/lfs/build-glibc/libc_pic.a(strchr-evex.os)
 .bss           0x0000000000000194        0x0 /home/j/Dokumente/GitHub/FreetimeOS/lfs/build-glibc/libc_pic.a(strchr-sse2.os)
 .bss           0x0000000000000194        0x0 /home/j/Dokumente/GitHub/FreetimeOS/lfs/build-glibc/libc_pic.a(strchr-sse2-no-bsf.os)
 .bss           0x0000000000000194        0x0 /home/j/Dokumente/GitHub/FreetimeOS/lfs/build-glibc/libc_pic.a(strcmp-avx2.os)
 .bss           0x0000000000000194        0x0 /home/j/Dokumente/GitHub/FreetimeOS/lfs/build-glibc/libc_pic.a(strcmp-avx2-rtm.os)
 .bss           0x0000000000000194        0x0 /home/j/Dokumente/GitHub/FreetimeOS/lfs/build-glibc/libc_pic.a(strcmp-evex.os)
 .bss           0x0000000000000194        0x0 /home/j/Dokumente/GitHub/FreetimeOS/lfs/build-glibc/libc_pic.a(strcmp-sse2.os)
 .bss           0x0000000000000194        0x0 /home/j/Dokumente/GitHub/FreetimeOS/lfs/build-glibc/libc_pic.a(strcmp-sse2-unaligned.os)
 .bss           0x0000000000000194        0x0 /home/j/Dokumente/GitHub/FreetimeOS/lfs/build-glibc/libc_pic.a(strcmp-sse4_2.os)
 .bss           0x0000000000000194        0x0 /home/j/Dokumente/GitHub/FreetimeOS/lfs/build-glibc/libc_pic.a(strcspn-sse4.os)
 .bss           0x0000000000000194        0x0 /home/j/Dokumente/GitHub/FreetimeOS/lfs/build-glibc/libc_pic.a(strlen-avx2.os)
 .bss           0x0000000000000194        0x0 /home/j/Dokumente/GitHub/FreetimeOS/lfs/build-glibc/libc_pic.a(strlen-avx2-rtm.os)
 .bss           0x0000000000000194        0x0 /home/j/Dokumente/GitHub/FreetimeOS/lfs/build-glibc/libc_pic.a(strlen-evex.os)
 .bss           0x0000000000000194        0x0 /home/j/Dokumente/GitHub/FreetimeOS/lfs/build-glibc/libc_pic.a(strlen-sse2.os)
 .bss           0x0000000000000194        0x0 /home/j/Dokumente/GitHub/FreetimeOS/lfs/build-glibc/libc_pic.a(strncmp-avx2.os)
 .bss           0x0000000000000194        0x0 /home/j/Dokumente/GitHub/FreetimeOS/lfs/build-glibc/libc_pic.a(strncmp-avx2-rtm.os)
 .bss           0x0000000000000194        0x0 /home/j/Dokumente/GitHub/FreetimeOS/lfs/build-glibc/libc_pic.a(strncmp-evex.os)
 .bss           0x0000000000000194        0x0 /home/j/Dokumente/GitHub/FreetimeOS/lfs/build-glibc/libc_pic.a(strncmp-sse2.os)
 .bss           0x0000000000000194        0x0 /home/j/Dokumente/GitHub/FreetimeOS/lfs/build-glibc/libc_pic.a(strncmp-sse4_2.os)
 .bss           0x0000000000000194        0x0 /home/j/Dokumente/GitHub/FreetimeOS/lfs/build-glibc/libc_pic.a(strnlen-avx2.os)
 .bss           0x0000000000000194        0x0 /home/j/Dokumente/GitHub/FreetimeOS/lfs/build-glibc/libc_pic.a(strnlen-avx2-rtm.os)
 .bss           0x0000000000000194        0x0 /home/j/Dokumente/GitHub/FreetimeOS/lfs/build-glibc/libc_pic.a(strnlen-evex.os)
 .bss           0x0000000000000194        0x0 /home/j/Dokumente/GitHub/FreetimeOS/lfs/build-glibc/libc_pic.a(strnlen-sse2.os)
 .bss           0x0000000000000194        0x0 /home/j/Dokumente/GitHub/FreetimeOS/lfs/build-glibc/libc_pic.a(varshift.os)
 .bss           0x0000000000000194        0x0 /home/j/Dokumente/GitHub/FreetimeOS/lfs/build-glibc/libc_pic.a(strcspn-generic.os)
 *fill*         0x0000000000000194        0x4 
 .bss           0x0000000000000198       0x18 /home/j/Dokumente/GitHub/FreetimeOS/lfs/build-glibc/libc_pic.a(cacheinfo.os)
                0x0000000000000198                __x86_string_control
                0x00000000000001a0                __x86_rep_movsb_stop_threshold
                0x00000000000001a8                __x86_shared_non_temporal_threshold
 .bss           0x00000000000001b0        0x0 /home/j/Dokumente/GitHub/FreetimeOS/lfs/build-glibc/libc_pic.a(closedir.os)
 .bss           0x00000000000001b0        0x0 /home/j/Dokumente/GitHub/FreetimeOS/lfs/build-glibc/libc_pic.a(rewinddir.os)
 .bss           0x00000000000001b0        0x0 /home/j/Dokumente/GitHub/FreetimeOS/lfs/build-glibc/libc_pic.a(readdir64.os)
 .bss           0x00000000000001b0        0x0 /home/j/Dokumente/GitHub/FreetimeOS/lfs/build-glibc/libc_pic.a(fdopendir.os)
 .bss           0x00000000000001b0        0x0 /home/j/Dokumente/GitHub/FreetimeOS/lfs/build-glibc/libc_pic.a(_exit.os)
 .bss           0x00000000000001b0        0x0 /home/j/Dokumente/GitHub/FreetimeOS/lfs/build-glibc/libc_pic.a(getpid.os)
 .bss           0x00000000000001b0        0x0 /home/j/Dokumente/GitHub/FreetimeOS/lfs/build-glibc/libc_pic.a(uname.os)
 .bss           0x00000000000001b0        0x8 /home/j/Dokumente/GitHub/FreetimeOS/lfs/build-glibc/libc_pic.a(environ.os)
                0x00000000000001b0                _environ
                0x00000000000001b0                __environ
                0x00000000000001b0                environ
 .bss           0x00000000000001b8        0x0 /home/j/Dokumente/GitHub/FreetimeOS/lfs/build-glibc/libc_pic.a(access.os)
 .bss           0x00000000000001b8        0x0 /home/j/Dokumente/GitHub/FreetimeOS/lfs/build-glibc/libc_pic.a(fstat64.os)
 .bss           0x00000000000001b8        0x0 /home/j/Dokumente/GitHub/FreetimeOS/lfs/build-glibc/libc_pic.a(fstatat64.os)
 .bss           0x00000000000001b8        0x0 /home/j/Dokumente/GitHub/FreetimeOS/lfs/build-glibc/libc_pic.a(lseek64.os)
 .bss           0x00000000000001b8        0x0 /home/j/Dokumente/GitHub/FreetimeOS/lfs/build-glibc/libc_pic.a(lstat64.os)
 .bss           0x00000000000001b8        0x0 /home/j/Dokumente/GitHub/FreetimeOS/lfs/build-glibc/libc_pic.a(openat64.os)
 .bss           0x00000000000001b8        0x0 /home/j/Dokumente/GitHub/FreetimeOS/lfs/build-glibc/libc_pic.a(stat64.os)
 .bss           0x00000000000001b8        0x0 /home/j/Dokumente/GitHub/FreetimeOS/lfs/build-glibc/libc_pic.a(close_nocancel.os)
 .bss           0x00000000000001b8        0x0 /home/j/Dokumente/GitHub/FreetimeOS/lfs/build-glibc/libc_pic.a(fcntl_nocancel.os)
 .bss           0x00000000000001b8        0x0 /home/j/Dokumente/GitHub/FreetimeOS/lfs/build-glibc/libc_pic.a(open64_nocancel.os)
 .bss           0x00000000000001b8        0x0 /home/j/Dokumente/GitHub/FreetimeOS/lfs/build-glibc/libc_pic.a(pread64_nocancel.os)
 .bss           0x00000000000001b8        0x0 /home/j/Dokumente/GitHub/FreetimeOS/lfs/build-glibc/libc_pic.a(read_nocancel.os)
 .bss           0x00000000000001b8        0x0 /home/j/Dokumente/GitHub/FreetimeOS/lfs/build-glibc/libc_pic.a(write_nocancel.os)
 .bss           0x00000000000001b8        0x0 /home/j/Dokumente/GitHub/FreetimeOS/lfs/build-glibc/libc_pic.a(mmap64.os)
 .bss           0x00000000000001b8        0x0 /home/j/Dokumente/GitHub/FreetimeOS/lfs/build-glibc/libc_pic.a(mprotect.os)
 .bss           0x00000000000001b8        0x0 /home/j/Dokumente/GitHub/FreetimeOS/lfs/build-glibc/libc_pic.a(munmap.os)
 .bss           0x00000000000001b8        0x1 /home/j/Dokumente/GitHub/FreetimeOS/lfs/build-glibc/libc_pic.a(single_threaded.os)
                0x00000000000001b8                __libc_single_threaded
                0x00000000000001b8                __libc_single_threaded_internal
 .bss           0x00000000000001b9        0x0 /home/j/Dokumente/GitHub/FreetimeOS/lfs/build-glibc/libc_pic.a(setvmaname.os)
 *fill*         0x00000000000001b9        0x7 
 .bss           0x00000000000001c0       0xe0 /home/j/Dokumente/GitHub/FreetimeOS/lfs/build-glibc/libc_pic.a(profil.os)
 .bss           0x00000000000002a0        0x0 /home/j/Dokumente/GitHub/FreetimeOS/lfs/build-glibc/libc_pic.a(prof-freq.os)
 .bss           0x00000000000002a0        0x0 /home/j/Dokumente/GitHub/FreetimeOS/lfs/build-glibc/libc_pic.a(dl-addr-obj.os)
 .bss           0x00000000000002a0        0x0 /home/j/Dokumente/GitHub/FreetimeOS/lfs/build-glibc/libc_pic.a(sigaction.os)
 .bss           0x00000000000002a0        0x0 /home/j/Dokumente/GitHub/FreetimeOS/lfs/build-glibc/libc_pic.a(libc_sigaction.os)
 .bss           0x00000000000002a0        0x0 /home/j/Dokumente/GitHub/FreetimeOS/lfs/build-glibc/libc_pic.a(errname.os)
 .bss           0x00000000000002a0        0x0 /home/j/Dokumente/GitHub/FreetimeOS/lfs/build-glibc/libc_pic.a(strchrnul.os)
 .bss           0x00000000000002a0        0x0 /home/j/Dokumente/GitHub/FreetimeOS/lfs/build-glibc/libc_pic.a(strchrnul-avx2.os)
 .bss           0x00000000000002a0        0x0 /home/j/Dokumente/GitHub/FreetimeOS/lfs/build-glibc/libc_pic.a(strchrnul-avx2-rtm.os)
 .bss           0x00000000000002a0        0x0 /home/j/Dokumente/GitHub/FreetimeOS/lfs/build-glibc/libc_pic.a(strchrnul-evex.os)
 .bss           0x00000000000002a0        0x0 /home/j/Dokumente/GitHub/FreetimeOS/lfs/build-glibc/libc_pic.a(strchrnul-sse2.os)
 .bss           0x00000000000002a0        0x0 /home/j/Dokumente/GitHub/FreetimeOS/lfs/build-glibc/libc_pic.a(setitimer.os)
 .bss           0x00000000000002a0        0x0 /home/j/Dokumente/GitHub/FreetimeOS/lfs/build-glibc/libc_pic.a(getdents64.os)

.lbss
 *(.lbss)

.lrodata
 *(.lrodata)

.ldata
 *(.ldata)

.stab
 *(.stab)

.stabstr
 *(.stabstr)

.stab.excl
 *(.stab.excl)

.stab.exclstr
 *(.stab.exclstr)

.stab.index
 *(.stab.index)

.stab.indexstr
 *(.stab.indexstr)

.comment        0x0000000000000000     0x12e8
 *(.comment)
 .comment       0x0000000000000000      0x9a0 /home/j/Dokumente/GitHub/FreetimeOS/lfs/build-glibc/elf/dl-allobjs.os
 .comment       0x00000000000009a0       0x2c /home/j/Dokumente/GitHub/FreetimeOS/lfs/build-glibc/libc_pic.a(check_fds.os)
 .comment       0x00000000000009cc       0x2c /home/j/Dokumente/GitHub/FreetimeOS/lfs/build-glibc/libc_pic.a(errno.os)
 .comment       0x00000000000009f8       0x2c /home/j/Dokumente/GitHub/FreetimeOS/lfs/build-glibc/libc_pic.a(lowlevellock.os)
 .comment       0x0000000000000a24       0x2c /home/j/Dokumente/GitHub/FreetimeOS/lfs/build-glibc/libc_pic.a(scratch_buffer_set_array_size.os)
 .comment       0x0000000000000a50       0x2c /home/j/Dokumente/GitHub/FreetimeOS/lfs/build-glibc/libc_pic.a(memchr.os)
 .comment       0x0000000000000a7c       0x2c /home/j/Dokumente/GitHub/FreetimeOS/lfs/build-glibc/libc_pic.a(memcmp.os)
 .comment       0x0000000000000aa8       0x2c /home/j/Dokumente/GitHub/FreetimeOS/lfs/build-glibc/libc_pic.a(memcpy.os)
 .comment       0x0000000000000ad4       0x2c /home/j/Dokumente/GitHub/FreetimeOS/lfs/build-glibc/libc_pic.a(memmove.os)
 .comment       0x0000000000000b00       0x2c /home/j/Dokumente/GitHub/FreetimeOS/lfs/build-glibc/libc_pic.a(mempcpy.os)
 .comment       0x0000000000000b2c       0x2c /home/j/Dokumente/GitHub/FreetimeOS/lfs/build-glibc/libc_pic.a(memset.os)
 .comment       0x0000000000000b58       0x2c /home/j/Dokumente/GitHub/FreetimeOS/lfs/build-glibc/libc_pic.a(stpcpy.os)
 .comment       0x0000000000000b84       0x2c /home/j/Dokumente/GitHub/FreetimeOS/lfs/build-glibc/libc_pic.a(strchr.os)
 .comment       0x0000000000000bb0       0x2c /home/j/Dokumente/GitHub/FreetimeOS/lfs/build-glibc/libc_pic.a(strcmp.os)
 .comment       0x0000000000000bdc       0x2c /home/j/Dokumente/GitHub/FreetimeOS/lfs/build-glibc/libc_pic.a(strcspn.os)
 .comment       0x0000000000000c08       0x2c /home/j/Dokumente/GitHub/FreetimeOS/lfs/build-glibc/libc_pic.a(strdup.os)
 .comment       0x0000000000000c34       0x2c /home/j/Dokumente/GitHub/FreetimeOS/lfs/build-glibc/libc_pic.a(strerrorname_np.os)
 .comment       0x0000000000000c60       0x2c /home/j/Dokumente/GitHub/FreetimeOS/lfs/build-glibc/libc_pic.a(strlen.os)
 .comment       0x0000000000000c8c       0x2c /home/j/Dokumente/GitHub/FreetimeOS/lfs/build-glibc/libc_pic.a(strncmp.os)
 .comment       0x0000000000000cb8       0x2c /home/j/Dokumente/GitHub/FreetimeOS/lfs/build-glibc/libc_pic.a(strnlen.os)
 .comment       0x0000000000000ce4       0x2c /home/j/Dokumente/GitHub/FreetimeOS/lfs/build-glibc/libc_pic.a(strcspn-sse4.os)
 .comment       0x0000000000000d10       0x2c /home/j/Dokumente/GitHub/FreetimeOS/lfs/build-glibc/libc_pic.a(varshift.os)
 .comment       0x0000000000000d3c       0x2c /home/j/Dokumente/GitHub/FreetimeOS/lfs/build-glibc/libc_pic.a(strcspn-generic.os)
 .comment       0x0000000000000d68       0x2c /home/j/Dokumente/GitHub/FreetimeOS/lfs/build-glibc/libc_pic.a(cacheinfo.os)
 .comment       0x0000000000000d94       0x2c /home/j/Dokumente/GitHub/FreetimeOS/lfs/build-glibc/libc_pic.a(closedir.os)
 .comment       0x0000000000000dc0       0x2c /home/j/Dokumente/GitHub/FreetimeOS/lfs/build-glibc/libc_pic.a(rewinddir.os)
 .comment       0x0000000000000dec       0x2c /home/j/Dokumente/GitHub/FreetimeOS/lfs/build-glibc/libc_pic.a(readdir64.os)
 .comment       0x0000000000000e18       0x2c /home/j/Dokumente/GitHub/FreetimeOS/lfs/build-glibc/libc_pic.a(fdopendir.os)
 .comment       0x0000000000000e44       0x2c /home/j/Dokumente/GitHub/FreetimeOS/lfs/build-glibc/libc_pic.a(_exit.os)
 .comment       0x0000000000000e70       0x2c /home/j/Dokumente/GitHub/FreetimeOS/lfs/build-glibc/libc_pic.a(environ.os)
 .comment       0x0000000000000e9c       0x2c /home/j/Dokumente/GitHub/FreetimeOS/lfs/build-glibc/libc_pic.a(access.os)
 .comment       0x0000000000000ec8       0x2c /home/j/Dokumente/GitHub/FreetimeOS/lfs/build-glibc/libc_pic.a(fstat64.os)
 .comment       0x0000000000000ef4       0x2c /home/j/Dokumente/GitHub/FreetimeOS/lfs/build-glibc/libc_pic.a(fstatat64.os)
 .comment       0x0000000000000f20       0x2c /home/j/Dokumente/GitHub/FreetimeOS/lfs/build-glibc/libc_pic.a(lseek64.os)
 .comment       0x0000000000000f4c       0x2c /home/j/Dokumente/GitHub/FreetimeOS/lfs/build-glibc/libc_pic.a(lstat64.os)
 .comment       0x0000000000000f78       0x2c /home/j/Dokumente/GitHub/FreetimeOS/lfs/build-glibc/libc_pic.a(openat64.os)
 .comment       0x0000000000000fa4       0x2c /home/j/Dokumente/GitHub/FreetimeOS/lfs/build-glibc/libc_pic.a(stat64.os)
 .comment       0x0000000000000fd0       0x2c /home/j/Dokumente/GitHub/FreetimeOS/lfs/build-glibc/libc_pic.a(close_nocancel.os)
 .comment       0x0000000000000ffc       0x2c /home/j/Dokumente/GitHub/FreetimeOS/lfs/build-glibc/libc_pic.a(fcntl_nocancel.os)
 .comment       0x0000000000001028       0x2c /home/j/Dokumente/GitHub/FreetimeOS/lfs/build-glibc/libc_pic.a(open64_nocancel.os)
 .comment       0x0000000000001054       0x2c /home/j/Dokumente/GitHub/FreetimeOS/lfs/build-glibc/libc_pic.a(pread64_nocancel.os)
 .comment       0x0000000000001080       0x2c /home/j/Dokumente/GitHub/FreetimeOS/lfs/build-glibc/libc_pic.a(read_nocancel.os)
 .comment       0x00000000000010ac       0x2c /home/j/Dokumente/GitHub/FreetimeOS/lfs/build-glibc/libc_pic.a(write_nocancel.os)
 .comment       0x00000000000010d8       0x2c /home/j/Dokumente/GitHub/FreetimeOS/lfs/build-glibc/libc_pic.a(mmap64.os)
 .comment       0x0000000000001104       0x2c /home/j/Dokumente/GitHub/FreetimeOS/lfs/build-glibc/libc_pic.a(single_threaded.os)
 .comment       0x0000000000001130       0x2c /home/j/Dokumente/GitHub/FreetimeOS/lfs/build-glibc/libc_pic.a(setvmaname.os)
 .comment       0x000000000000115c       0x2c /home/j/Dokumente/GitHub/FreetimeOS/lfs/build-glibc/libc_pic.a(profil.os)
 .comment       0x0000000000001188       0x2c /home/j/Dokumente/GitHub/FreetimeOS/lfs/build-glibc/libc_pic.a(prof-freq.os)
 .comment       0x00000000000011b4       0x2c /home/j/Dokumente/GitHub/FreetimeOS/lfs/build-glibc/libc_pic.a(dl-addr-obj.os)
 .comment       0x00000000000011e0       0x2c /home/j/Dokumente/GitHub/FreetimeOS/lfs/build-glibc/libc_pic.a(sigaction.os)
 .comment       0x000000000000120c       0x2c /home/j/Dokumente/GitHub/FreetimeOS/lfs/build-glibc/libc_pic.a(libc_sigaction.os)
 .comment       0x0000000000001238       0x2c /home/j/Dokumente/GitHub/FreetimeOS/lfs/build-glibc/libc_pic.a(errname.os)
 .comment       0x0000000000001264       0x2c /home/j/Dokumente/GitHub/FreetimeOS/lfs/build-glibc/libc_pic.a(strchrnul.os)
 .comment       0x0000000000001290       0x2c /home/j/Dokumente/GitHub/FreetimeOS/lfs/build-glibc/libc_pic.a(setitimer.os)
 .comment       0x00000000000012bc       0x2c /home/j/Dokumente/GitHub/FreetimeOS/lfs/build-glibc/libc_pic.a(getdents64.os)

.note.GNU-stack
                0x0000000000000000        0x0
 .note.GNU-stack
                0x0000000000000000        0x0 /home/j/Dokumente/GitHub/FreetimeOS/lfs/build-glibc/elf/librtld.mapT.o
 .note.GNU-stack
                0x0000000000000000        0x0 /home/j/Dokumente/GitHub/FreetimeOS/lfs/build-glibc/elf/dl-allobjs.os
 .note.GNU-stack
                0x0000000000000000        0x0 /home/j/Dokumente/GitHub/FreetimeOS/lfs/build-glibc/libc_pic.a(check_fds.os)
 .note.GNU-stack
                0x0000000000000000        0x0 /home/j/Dokumente/GitHub/FreetimeOS/lfs/build-glibc/libc_pic.a(errno.os)
 .note.GNU-stack
                0x0000000000000000        0x0 /home/j/Dokumente/GitHub/FreetimeOS/lfs/build-glibc/libc_pic.a(setjmp.os)
 .note.GNU-stack
                0x0000000000000000        0x0 /home/j/Dokumente/GitHub/FreetimeOS/lfs/build-glibc/libc_pic.a(__longjmp.os)
 .note.GNU-stack
                0x0000000000000000        0x0 /home/j/Dokumente/GitHub/FreetimeOS/lfs/build-glibc/libc_pic.a(lowlevellock.os)
 .note.GNU-stack
                0x0000000000000000        0x0 /home/j/Dokumente/GitHub/FreetimeOS/lfs/build-glibc/libc_pic.a(scratch_buffer_set_array_size.os)
 .note.GNU-stack
                0x0000000000000000        0x0 /home/j/Dokumente/GitHub/FreetimeOS/lfs/build-glibc/libc_pic.a(memchr.os)
 .note.GNU-stack
                0x0000000000000000        0x0 /home/j/Dokumente/GitHub/FreetimeOS/lfs/build-glibc/libc_pic.a(memcmp.os)
 .note.GNU-stack
                0x0000000000000000        0x0 /home/j/Dokumente/GitHub/FreetimeOS/lfs/build-glibc/libc_pic.a(memcpy.os)
 .note.GNU-stack
                0x0000000000000000        0x0 /home/j/Dokumente/GitHub/FreetimeOS/lfs/build-glibc/libc_pic.a(memmove.os)
 .note.GNU-stack
                0x0000000000000000        0x0 /home/j/Dokumente/GitHub/FreetimeOS/lfs/build-glibc/libc_pic.a(mempcpy.os)
 .note.GNU-stack
                0x0000000000000000        0x0 /home/j/Dokumente/GitHub/FreetimeOS/lfs/build-glibc/libc_pic.a(memset.os)
 .note.GNU-stack
                0x0000000000000000        0x0 /home/j/Dokumente/GitHub/FreetimeOS/lfs/build-glibc/libc_pic.a(stpcpy.os)
 .note.GNU-stack
                0x0000000000000000        0x0 /home/j/Dokumente/GitHub/FreetimeOS/lfs/build-glibc/libc_pic.a(strchr.os)
 .note.GNU-stack
                0x0000000000000000        0x0 /home/j/Dokumente/GitHub/FreetimeOS/lfs/build-glibc/libc_pic.a(strcmp.os)
 .note.GNU-stack
                0x0000000000000000        0x0 /home/j/Dokumente/GitHub/FreetimeOS/lfs/build-glibc/libc_pic.a(strcspn.os)
 .note.GNU-stack
                0x0000000000000000        0x0 /home/j/Dokumente/GitHub/FreetimeOS/lfs/build-glibc/libc_pic.a(strdup.os)
 .note.GNU-stack
                0x0000000000000000        0x0 /home/j/Dokumente/GitHub/FreetimeOS/lfs/build-glibc/libc_pic.a(strerrorname_np.os)
 .note.GNU-stack
                0x0000000000000000        0x0 /home/j/Dokumente/GitHub/FreetimeOS/lfs/build-glibc/libc_pic.a(strlen.os)
 .note.GNU-stack
                0x0000000000000000        0x0 /home/j/Dokumente/GitHub/FreetimeOS/lfs/build-glibc/libc_pic.a(strncmp.os)
 .note.GNU-stack
                0x0000000000000000        0x0 /home/j/Dokumente/GitHub/FreetimeOS/lfs/build-glibc/libc_pic.a(strnlen.os)
 .note.GNU-stack
                0x0000000000000000        0x0 /home/j/Dokumente/GitHub/FreetimeOS/lfs/build-glibc/libc_pic.a(memchr-avx2.os)
 .note.GNU-stack
                0x0000000000000000        0x0 /home/j/Dokumente/GitHub/FreetimeOS/lfs/build-glibc/libc_pic.a(memchr-avx2-rtm.os)
 .note.GNU-stack
                0x0000000000000000        0x0 /home/j/Dokumente/GitHub/FreetimeOS/lfs/build-glibc/libc_pic.a(memchr-evex.os)
 .note.GNU-stack
                0x0000000000000000        0x0 /home/j/Dokumente/GitHub/FreetimeOS/lfs/build-glibc/libc_pic.a(memchr-evex-rtm.os)
 .note.GNU-stack
                0x0000000000000000        0x0 /home/j/Dokumente/GitHub/FreetimeOS/lfs/build-glibc/libc_pic.a(memchr-sse2.os)
 .note.GNU-stack
                0x0000000000000000        0x0 /home/j/Dokumente/GitHub/FreetimeOS/lfs/build-glibc/libc_pic.a(memcmp-avx2-movbe.os)
 .note.GNU-stack
                0x0000000000000000        0x0 /home/j/Dokumente/GitHub/FreetimeOS/lfs/build-glibc/libc_pic.a(memcmp-avx2-movbe-rtm.os)
 .note.GNU-stack
                0x0000000000000000        0x0 /home/j/Dokumente/GitHub/FreetimeOS/lfs/build-glibc/libc_pic.a(memcmp-evex-movbe.os)
 .note.GNU-stack
                0x0000000000000000        0x0 /home/j/Dokumente/GitHub/FreetimeOS/lfs/build-glibc/libc_pic.a(memcmp-sse2.os)
 .note.GNU-stack
                0x0000000000000000        0x0 /home/j/Dokumente/GitHub/FreetimeOS/lfs/build-glibc/libc_pic.a(memmove-avx-unaligned-erms.os)
 .note.GNU-stack
                0x0000000000000000        0x0 /home/j/Dokumente/GitHub/FreetimeOS/lfs/build-glibc/libc_pic.a(memmove-avx-unaligned-erms-rtm.os)
 .note.GNU-stack
                0x0000000000000000        0x0 /home/j/Dokumente/GitHub/FreetimeOS/lfs/build-glibc/libc_pic.a(memmove-avx512-no-vzeroupper.os)
 .note.GNU-stack
                0x0000000000000000        0x0 /home/j/Dokumente/GitHub/FreetimeOS/lfs/build-glibc/libc_pic.a(memmove-avx512-unaligned-erms.os)
 .note.GNU-stack
                0x0000000000000000        0x0 /home/j/Dokumente/GitHub/FreetimeOS/lfs/build-glibc/libc_pic.a(memmove-erms.os)
 .note.GNU-stack
                0x0000000000000000        0x0 /home/j/Dokumente/GitHub/FreetimeOS/lfs/build-glibc/libc_pic.a(memmove-evex-unaligned-erms.os)
 .note.GNU-stack
                0x0000000000000000        0x0 /home/j/Dokumente/GitHub/FreetimeOS/lfs/build-glibc/libc_pic.a(memmove-sse2-unaligned-erms.os)
 .note.GNU-stack
                0x0000000000000000        0x0 /home/j/Dokumente/GitHub/FreetimeOS/lfs/build-glibc/libc_pic.a(memmove-ssse3.os)
 .note.GNU-stack
                0x0000000000000000        0x0 /home/j/Dokumente/GitHub/FreetimeOS/lfs/build-glibc/libc_pic.a(memset-avx2-unaligned-erms.os)
 .note.GNU-stack
                0x0000000000000000        0x0 /home/j/Dokumente/GitHub/FreetimeOS/lfs/build-glibc/libc_pic.a(memset-avx2-unaligned-erms-rtm.os)
 .note.GNU-stack
                0x0000000000000000        0x0 /home/j/Dokumente/GitHub/FreetimeOS/lfs/build-glibc/libc_pic.a(memset-avx512-no-vzeroupper.os)
 .note.GNU-stack
                0x0000000000000000        0x0 /home/j/Dokumente/GitHub/FreetimeOS/lfs/build-glibc/libc_pic.a(memset-avx512-unaligned-erms.os)
 .note.GNU-stack
                0x0000000000000000        0x0 /home/j/Dokumente/GitHub/FreetimeOS/lfs/build-glibc/libc_pic.a(memset-erms.os)
 .note.GNU-stack
                0x0000000000000000        0x0 /home/j/Dokumente/GitHub/FreetimeOS/lfs/build-glibc/libc_pic.a(memset-evex-unaligned-erms.os)
 .note.GNU-stack
                0x0000000000000000        0x0 /home/j/Dokumente/GitHub/FreetimeOS/lfs/build-glibc/libc_pic.a(memset-sse2-unaligned-erms.os)
 .note.GNU-stack
                0x0000000000000000        0x0 /home/j/Dokumente/GitHub/FreetimeOS/lfs/build-glibc/libc_pic.a(stpcpy-avx2.os)
 .note.GNU-stack
                0x0000000000000000        0x0 /home/j/Dokumente/GitHub/FreetimeOS/lfs/build-glibc/libc_pic.a(stpcpy-avx2-rtm.os)
 .note.GNU-stack
                0x0000000000000000        0x0 /home/j/Dokumente/GitHub/FreetimeOS/lfs/build-glibc/libc_pic.a(stpcpy-evex.os)
 .note.GNU-stack
                0x0000000000000000        0x0 /home/j/Dokumente/GitHub/FreetimeOS/lfs/build-glibc/libc_pic.a(stpcpy-sse2.os)
 .note.GNU-stack
                0x0000000000000000        0x0 /home/j/Dokumente/GitHub/FreetimeOS/lfs/build-glibc/libc_pic.a(stpcpy-sse2-unaligned.os)
 .note.GNU-stack
                0x0000000000000000        0x0 /home/j/Dokumente/GitHub/FreetimeOS/lfs/build-glibc/libc_pic.a(strchr-avx2.os)
 .note.GNU-stack
                0x0000000000000000        0x0 /home/j/Dokumente/GitHub/FreetimeOS/lfs/build-glibc/libc_pic.a(strchr-avx2-rtm.os)
 .note.GNU-stack
                0x0000000000000000        0x0 /home/j/Dokumente/GitHub/FreetimeOS/lfs/build-glibc/libc_pic.a(strchr-evex.os)
 .note.GNU-stack
                0x0000000000000000        0x0 /home/j/Dokumente/GitHub/FreetimeOS/lfs/build-glibc/libc_pic.a(strchr-sse2.os)
 .note.GNU-stack
                0x0000000000000000        0x0 /home/j/Dokumente/GitHub/FreetimeOS/lfs/build-glibc/libc_pic.a(strchr-sse2-no-bsf.os)
 .note.GNU-stack
                0x0000000000000000        0x0 /home/j/Dokumente/GitHub/FreetimeOS/lfs/build-glibc/libc_pic.a(strcmp-avx2.os)
 .note.GNU-stack
                0x0000000000000000        0x0 /home/j/Dokumente/GitHub/FreetimeOS/lfs/build-glibc/libc_pic.a(strcmp-avx2-rtm.os)
 .note.GNU-stack
                0x0000000000000000        0x0 /home/j/Dokumente/GitHub/FreetimeOS/lfs/build-glibc/libc_pic.a(strcmp-evex.os)
 .note.GNU-stack
                0x0000000000000000        0x0 /home/j/Dokumente/GitHub/FreetimeOS/lfs/build-glibc/libc_pic.a(strcmp-sse2.os)
 .note.GNU-stack
                0x0000000000000000        0x0 /home/j/Dokumente/GitHub/FreetimeOS/lfs/build-glibc/libc_pic.a(strcmp-sse2-unaligned.os)
 .note.GNU-stack
                0x0000000000000000        0x0 /home/j/Dokumente/GitHub/FreetimeOS/lfs/build-glibc/libc_pic.a(strcmp-sse4_2.os)
 .note.GNU-stack
                0x0000000000000000        0x0 /home/j/Dokumente/GitHub/FreetimeOS/lfs/build-glibc/libc_pic.a(strcspn-sse4.os)
 .note.GNU-stack
                0x0000000000000000        0x0 /home/j/Dokumente/GitHub/FreetimeOS/lfs/build-glibc/libc_pic.a(strlen-avx2.os)
 .note.GNU-stack
                0x0000000000000000        0x0 /home/j/Dokumente/GitHub/FreetimeOS/lfs/build-glibc/libc_pic.a(strlen-avx2-rtm.os)
 .note.GNU-stack
                0x0000000000000000        0x0 /home/j/Dokumente/GitHub/FreetimeOS/lfs/build-glibc/libc_pic.a(strlen-evex.os)
 .note.GNU-stack
                0x0000000000000000        0x0 /home/j/Dokumente/GitHub/FreetimeOS/lfs/build-glibc/libc_pic.a(strlen-sse2.os)
 .note.GNU-stack
                0x0000000000000000        0x0 /home/j/Dokumente/GitHub/FreetimeOS/lfs/build-glibc/libc_pic.a(strncmp-avx2.os)
 .note.GNU-stack
                0x0000000000000000        0x0 /home/j/Dokumente/GitHub/FreetimeOS/lfs/build-glibc/libc_pic.a(strncmp-avx2-rtm.os)
 .note.GNU-stack
                0x0000000000000000        0x0 /home/j/Dokumente/GitHub/FreetimeOS/lfs/build-glibc/libc_pic.a(strncmp-evex.os)
 .note.GNU-stack
                0x0000000000000000        0x0 /home/j/Dokumente/GitHub/FreetimeOS/lfs/build-glibc/libc_pic.a(strncmp-sse2.os)
 .note.GNU-stack
                0x0000000000000000        0x0 /home/j/Dokumente/GitHub/FreetimeOS/lfs/build-glibc/libc_pic.a(strncmp-sse4_2.os)
 .note.GNU-stack
                0x0000000000000000        0x0 /home/j/Dokumente/GitHub/FreetimeOS/lfs/build-glibc/libc_pic.a(strnlen-avx2.os)
 .note.GNU-stack
                0x0000000000000000        0x0 /home/j/Dokumente/GitHub/FreetimeOS/lfs/build-glibc/libc_pic.a(strnlen-avx2-rtm.os)
 .note.GNU-stack
                0x0000000000000000        0x0 /home/j/Dokumente/GitHub/FreetimeOS/lfs/build-glibc/libc_pic.a(strnlen-evex.os)
 .note.GNU-stack
                0x0000000000000000        0x0 /home/j/Dokumente/GitHub/FreetimeOS/lfs/build-glibc/libc_pic.a(strnlen-sse2.os)
 .note.GNU-stack
                0x0000000000000000        0x0 /home/j/Dokumente/GitHub/FreetimeOS/lfs/build-glibc/libc_pic.a(varshift.os)
 .note.GNU-stack
                0x0000000000000000        0x0 /home/j/Dokumente/GitHub/FreetimeOS/lfs/build-glibc/libc_pic.a(strcspn-generic.os)
 .note.GNU-stack
                0x0000000000000000        0x0 /home/j/Dokumente/GitHub/FreetimeOS/lfs/build-glibc/libc_pic.a(cacheinfo.os)
 .note.GNU-stack
                0x0000000000000000        0x0 /home/j/Dokumente/GitHub/FreetimeOS/lfs/build-glibc/libc_pic.a(closedir.os)
 .note.GNU-stack
                0x0000000000000000        0x0 /home/j/Dokumente/GitHub/FreetimeOS/lfs/build-glibc/libc_pic.a(rewinddir.os)
 .note.GNU-stack
                0x0000000000000000        0x0 /home/j/Dokumente/GitHub/FreetimeOS/lfs/build-glibc/libc_pic.a(readdir64.os)
 .note.GNU-stack
                0x0000000000000000        0x0 /home/j/Dokumente/GitHub/FreetimeOS/lfs/build-glibc/libc_pic.a(fdopendir.os)
 .note.GNU-stack
                0x0000000000000000        0x0 /home/j/Dokumente/GitHub/FreetimeOS/lfs/build-glibc/libc_pic.a(_exit.os)
 .note.GNU-stack
                0x0000000000000000        0x0 /home/j/Dokumente/GitHub/FreetimeOS/lfs/build-glibc/libc_pic.a(getpid.os)
 .note.GNU-stack
                0x0000000000000000        0x0 /home/j/Dokumente/GitHub/FreetimeOS/lfs/build-glibc/libc_pic.a(uname.os)
 .note.GNU-stack
                0x0000000000000000        0x0 /home/j/Dokumente/GitHub/FreetimeOS/lfs/build-glibc/libc_pic.a(environ.os)
 .note.GNU-stack
                0x0000000000000000        0x0 /home/j/Dokumente/GitHub/FreetimeOS/lfs/build-glibc/libc_pic.a(access.os)
 .note.GNU-stack
                0x0000000000000000        0x0 /home/j/Dokumente/GitHub/FreetimeOS/lfs/build-glibc/libc_pic.a(fstat64.os)
 .note.GNU-stack
                0x0000000000000000        0x0 /home/j/Dokumente/GitHub/FreetimeOS/lfs/build-glibc/libc_pic.a(fstatat64.os)
 .note.GNU-stack
                0x0000000000000000        0x0 /home/j/Dokumente/GitHub/FreetimeOS/lfs/build-glibc/libc_pic.a(lseek64.os)
 .note.GNU-stack
                0x0000000000000000        0x0 /home/j/Dokumente/GitHub/FreetimeOS/lfs/build-glibc/libc_pic.a(lstat64.os)
 .note.GNU-stack
                0x0000000000000000        0x0 /home/j/Dokumente/GitHub/FreetimeOS/lfs/build-glibc/libc_pic.a(openat64.os)
 .note.GNU-stack
                0x0000000000000000        0x0 /home/j/Dokumente/GitHub/FreetimeOS/lfs/build-glibc/libc_pic.a(stat64.os)
 .note.GNU-stack
                0x0000000000000000        0x0 /home/j/Dokumente/GitHub/FreetimeOS/lfs/build-glibc/libc_pic.a(close_nocancel.os)
 .note.GNU-stack
                0x0000000000000000        0x0 /home/j/Dokumente/GitHub/FreetimeOS/lfs/build-glibc/libc_pic.a(fcntl_nocancel.os)
 .note.GNU-stack
                0x0000000000000000        0x0 /home/j/Dokumente/GitHub/FreetimeOS/lfs/build-glibc/libc_pic.a(open64_nocancel.os)
 .note.GNU-stack
                0x0000000000000000        0x0 /home/j/Dokumente/GitHub/FreetimeOS/lfs/build-glibc/libc_pic.a(pread64_nocancel.os)
 .note.GNU-stack
                0x0000000000000000        0x0 /home/j/Dokumente/GitHub/FreetimeOS/lfs/build-glibc/libc_pic.a(read_nocancel.os)
 .note.GNU-stack
                0x0000000000000000        0x0 /home/j/Dokumente/GitHub/FreetimeOS/lfs/build-glibc/libc_pic.a(write_nocancel.os)
 .note.GNU-stack
                0x0000000000000000        0x0 /home/j/Dokumente/GitHub/FreetimeOS/lfs/build-glibc/libc_pic.a(mmap64.os)
 .note.GNU-stack
                0x0000000000000000        0x0 /home/j/Dokumente/GitHub/FreetimeOS/lfs/build-glibc/libc_pic.a(mprotect.os)
 .note.GNU-stack
                0x0000000000000000        0x0 /home/j/Dokumente/GitHub/FreetimeOS/lfs/build-glibc/libc_pic.a(munmap.os)
 .note.GNU-stack
                0x0000000000000000        0x0 /home/j/Dokumente/GitHub/FreetimeOS/lfs/build-glibc/libc_pic.a(single_threaded.os)
 .note.GNU-stack
                0x0000000000000000        0x0 /home/j/Dokumente/GitHub/FreetimeOS/lfs/build-glibc/libc_pic.a(setvmaname.os)
 .note.GNU-stack
                0x0000000000000000        0x0 /home/j/Dokumente/GitHub/FreetimeOS/lfs/build-glibc/libc_pic.a(profil.os)
 .note.GNU-stack
                0x0000000000000000        0x0 /home/j/Dokumente/GitHub/FreetimeOS/lfs/build-glibc/libc_pic.a(prof-freq.os)
 .note.GNU-stack
                0x0000000000000000        0x0 /home/j/Dokumente/GitHub/FreetimeOS/lfs/build-glibc/libc_pic.a(dl-addr-obj.os)
 .note.GNU-stack
                0x0000000000000000        0x0 /home/j/Dokumente/GitHub/FreetimeOS/lfs/build-glibc/libc_pic.a(sigaction.os)
 .note.GNU-stack
                0x0000000000000000        0x0 /home/j/Dokumente/GitHub/FreetimeOS/lfs/build-glibc/libc_pic.a(libc_sigaction.os)
 .note.GNU-stack
                0x0000000000000000        0x0 /home/j/Dokumente/GitHub/FreetimeOS/lfs/build-glibc/libc_pic.a(errname.os)
 .note.GNU-stack
                0x0000000000000000        0x0 /home/j/Dokumente/GitHub/FreetimeOS/lfs/build-glibc/libc_pic.a(strchrnul.os)
 .note.GNU-stack
                0x0000000000000000        0x0 /home/j/Dokumente/GitHub/FreetimeOS/lfs/build-glibc/libc_pic.a(strchrnul-avx2.os)
 .note.GNU-stack
                0x0000000000000000        0x0 /home/j/Dokumente/GitHub/FreetimeOS/lfs/build-glibc/libc_pic.a(strchrnul-avx2-rtm.os)
 .note.GNU-stack
                0x0000000000000000        0x0 /home/j/Dokumente/GitHub/FreetimeOS/lfs/build-glibc/libc_pic.a(strchrnul-evex.os)
 .note.GNU-stack
                0x0000000000000000        0x0 /home/j/Dokumente/GitHub/FreetimeOS/lfs/build-glibc/libc_pic.a(strchrnul-sse2.os)
 .note.GNU-stack
                0x0000000000000000        0x0 /home/j/Dokumente/GitHub/FreetimeOS/lfs/build-glibc/libc_pic.a(setitimer.os)
 .note.GNU-stack
                0x0000000000000000        0x0 /home/j/Dokumente/GitHub/FreetimeOS/lfs/build-glibc/libc_pic.a(getdents64.os)

.gnu.build.attributes
 *(.gnu.build.attributes)

.debug
 *(.debug)

.line
 *(.line)

.debug_srcinfo
 *(.debug_srcinfo)

.debug_sfnames
 *(.debug_sfnames)

.debug_aranges  0x0000000000000000      0x110
 *(.debug_aranges)
 .debug_aranges
                0x0000000000000000       0x30 /home/j/Dokumente/GitHub/FreetimeOS/lfs/build-glibc/libc_pic.a(check_fds.os)
 .debug_aranges
                0x0000000000000030       0x20 /home/j/Dokumente/GitHub/FreetimeOS/lfs/build-glibc/libc_pic.a(errno.os)
 .debug_aranges
                0x0000000000000050       0x30 /home/j/Dokumente/GitHub/FreetimeOS/lfs/build-glibc/libc_pic.a(setjmp.os)
 .debug_aranges
                0x0000000000000080       0x30 /home/j/Dokumente/GitHub/FreetimeOS/lfs/build-glibc/libc_pic.a(__longjmp.os)
 .debug_aranges
                0x00000000000000b0       0x30 /home/j/Dokumente/GitHub/FreetimeOS/lfs/build-glibc/libc_pic.a(sigaction.os)
 .debug_aranges
                0x00000000000000e0       0x30 /home/j/Dokumente/GitHub/FreetimeOS/lfs/build-glibc/libc_pic.a(libc_sigaction.os)

.debug_pubnames
 *(.debug_pubnames)

.debug_info     0x0000000000000000     0x12ba
 *(.debug_info)
 .debug_info    0x0000000000000000      0x4c7 /home/j/Dokumente/GitHub/FreetimeOS/lfs/build-glibc/libc_pic.a(check_fds.os)
 .debug_info    0x00000000000004c7       0xa4 /home/j/Dokumente/GitHub/FreetimeOS/lfs/build-glibc/libc_pic.a(errno.os)
 .debug_info    0x000000000000056b       0x48 /home/j/Dokumente/GitHub/FreetimeOS/lfs/build-glibc/libc_pic.a(setjmp.os)
 .debug_info    0x00000000000005b3       0x3b /home/j/Dokumente/GitHub/FreetimeOS/lfs/build-glibc/libc_pic.a(__longjmp.os)
 .debug_info    0x00000000000005ee      0x62b /home/j/Dokumente/GitHub/FreetimeOS/lfs/build-glibc/libc_pic.a(sigaction.os)
 .debug_info    0x0000000000000c19      0x6a1 /home/j/Dokumente/GitHub/FreetimeOS/lfs/build-glibc/libc_pic.a(libc_sigaction.os)

.debug_abbrev   0x0000000000000000      0x65f
 *(.debug_abbrev)
 .debug_abbrev  0x0000000000000000      0x1bb /home/j/Dokumente/GitHub/FreetimeOS/lfs/build-glibc/libc_pic.a(check_fds.os)
 .debug_abbrev  0x00000000000001bb       0x57 /home/j/Dokumente/GitHub/FreetimeOS/lfs/build-glibc/libc_pic.a(errno.os)
 .debug_abbrev  0x0000000000000212       0x28 /home/j/Dokumente/GitHub/FreetimeOS/lfs/build-glibc/libc_pic.a(setjmp.os)
 .debug_abbrev  0x000000000000023a       0x28 /home/j/Dokumente/GitHub/FreetimeOS/lfs/build-glibc/libc_pic.a(__longjmp.os)
 .debug_abbrev  0x0000000000000262      0x1cb /home/j/Dokumente/GitHub/FreetimeOS/lfs/build-glibc/libc_pic.a(sigaction.os)
 .debug_abbrev  0x000000000000042d      0x232 /home/j/Dokumente/GitHub/FreetimeOS/lfs/build-glibc/libc_pic.a(libc_sigaction.os)

.debug_line     0x0000000000000000      0x5c1
 *(.debug_line)
 .debug_line    0x0000000000000000      0x134 /home/j/Dokumente/GitHub/FreetimeOS/lfs/build-glibc/libc_pic.a(check_fds.os)
 .debug_line    0x0000000000000134       0x3f /home/j/Dokumente/GitHub/FreetimeOS/lfs/build-glibc/libc_pic.a(errno.os)
 .debug_line    0x0000000000000173       0x64 /home/j/Dokumente/GitHub/FreetimeOS/lfs/build-glibc/libc_pic.a(setjmp.os)
 .debug_line    0x00000000000001d7       0x7d /home/j/Dokumente/GitHub/FreetimeOS/lfs/build-glibc/libc_pic.a(__longjmp.os)
 .debug_line    0x0000000000000254       0xd6 /home/j/Dokumente/GitHub/FreetimeOS/lfs/build-glibc/libc_pic.a(sigaction.os)
 .debug_line    0x000000000000032a      0x297 /home/j/Dokumente/GitHub/FreetimeOS/lfs/build-glibc/libc_pic.a(libc_sigaction.os)

.debug_frame
 *(.debug_frame)

.debug_str      0x0000000000000000      0xea7
 *(.debug_str)
 .debug_str     0x0000000000000000      0x394 /home/j/Dokumente/GitHub/FreetimeOS/lfs/build-glibc/libc_pic.a(check_fds.os)
 .debug_str     0x0000000000000394      0x1b9 /home/j/Dokumente/GitHub/FreetimeOS/lfs/build-glibc/libc_pic.a(errno.os)
 .debug_str     0x000000000000054d       0x7e /home/j/Dokumente/GitHub/FreetimeOS/lfs/build-glibc/libc_pic.a(setjmp.os)
 .debug_str     0x00000000000005cb       0x6e /home/j/Dokumente/GitHub/FreetimeOS/lfs/build-glibc/libc_pic.a(__longjmp.os)
 .debug_str     0x0000000000000639      0x413 /home/j/Dokumente/GitHub/FreetimeOS/lfs/build-glibc/libc_pic.a(sigaction.os)
 .debug_str     0x0000000000000a4c      0x45b /home/j/Dokumente/GitHub/FreetimeOS/lfs/build-glibc/libc_pic.a(libc_sigaction.os)

.debug_loc
 *(.debug_loc)

.debug_macinfo
 *(.debug_macinfo)

.debug_weaknames
 *(.debug_weaknames)

.debug_funcnames
 *(.debug_funcnames)

.debug_typenames
 *(.debug_typenames)

.debug_varnames
 *(.debug_varnames)

.debug_pubtypes
 *(.debug_pubtypes)

.debug_ranges
 *(.debug_ranges)

.debug_addr
 *(.debug_addr)

.debug_line_str
                0x0000000000000000      0x6ba
 *(.debug_line_str)
 .debug_line_str
                0x0000000000000000      0x16d /home/j/Dokumente/GitHub/FreetimeOS/lfs/build-glibc/libc_pic.a(check_fds.os)
 .debug_line_str
                0x000000000000016d       0x99 /home/j/Dokumente/GitHub/FreetimeOS/lfs/build-glibc/libc_pic.a(errno.os)
 .debug_line_str
                0x0000000000000206       0x55 /home/j/Dokumente/GitHub/FreetimeOS/lfs/build-glibc/libc_pic.a(setjmp.os)
 .debug_line_str
                0x000000000000025b       0x58 /home/j/Dokumente/GitHub/FreetimeOS/lfs/build-glibc/libc_pic.a(__longjmp.os)
 .debug_line_str
                0x00000000000002b3      0x1b5 /home/j/Dokumente/GitHub/FreetimeOS/lfs/build-glibc/libc_pic.a(sigaction.os)
 .debug_line_str
                0x0000000000000468      0x252 /home/j/Dokumente/GitHub/FreetimeOS/lfs/build-glibc/libc_pic.a(libc_sigaction.os)

.debug_loclists
                0x0000000000000000      0x21c
 *(.debug_loclists)
 .debug_loclists
                0x0000000000000000       0xa2 /home/j/Dokumente/GitHub/FreetimeOS/lfs/build-glibc/libc_pic.a(check_fds.os)
 .debug_loclists
                0x00000000000000a2       0x5f /home/j/Dokumente/GitHub/FreetimeOS/lfs/build-glibc/libc_pic.a(sigaction.os)
 .debug_loclists
                0x0000000000000101      0x11b /home/j/Dokumente/GitHub/FreetimeOS/lfs/build-glibc/libc_pic.a(libc_sigaction.os)

.debug_macro
 *(.debug_macro)

.debug_names
 *(.debug_names)

.debug_rnglists
                0x0000000000000000       0x73
 *(.debug_rnglists)
 .debug_rnglists
                0x0000000000000000       0x73 /home/j/Dokumente/GitHub/FreetimeOS/lfs/build-glibc/libc_pic.a(libc_sigaction.os)

.debug_str_offsets
 *(.debug_str_offsets)

.debug_sup
 *(.debug_sup)

.gnu.attributes
 *(.gnu.attributes)
OUTPUT(/home/j/Dokumente/GitHub/FreetimeOS/lfs/build-glibc/elf/librtld.map.o elf64-x86-64)
